TN:
SF:/home/tyler/src/wren/build/include/boost/core/checked_delete.hpp
FN:31,45,_ZN5boost14checked_deleteINS_10test_tools9tt_detail28tolerance_evaluation_contextIfEEEEvPT_
FN:31,45,_ZN5boost14checked_deleteINS_23basic_wrap_stringstreamIcEEEEvPT_
FNDA:3,_ZN5boost14checked_deleteINS_10test_tools9tt_detail28tolerance_evaluation_contextIfEEEEvPT_
FNDA:0,_ZN5boost14checked_deleteINS_23basic_wrap_stringstreamIcEEEEvPT_
FNF:2
FNH:1
DA:31,3
DA:44,3
DA:45,3
LF:3
LH:3
end_of_record
TN:
SF:/home/tyler/src/wren/build/include/boost/function/function_base.hpp
FN:238,258,_ZN5boost6detail8function22functor_manager_commonIPFvvEE10manage_ptrERKNS1_15function_bufferERS6_NS1_30functor_manager_operation_typeE
FN:300,304,_ZN5boost6detail8function15functor_managerIPFvvEE7managerERKNS1_15function_bufferERS6_NS1_30functor_manager_operation_typeENS1_16function_ptr_tagE
FN:373,384,_ZN5boost6detail8function15functor_managerIPFvvEE6manageERKNS1_15function_bufferERS6_NS1_30functor_manager_operation_typeE
FN:509,509,_ZN5boost13function_baseC2Ev
FN:586,587,_ZNK5boost13function_base28has_trivial_copy_and_destroyEv
FNDA:9,_ZN5boost6detail8function22functor_manager_commonIPFvvEE10manage_ptrERKNS1_15function_bufferERS6_NS1_30functor_manager_operation_typeE
FNDA:9,_ZN5boost6detail8function15functor_managerIPFvvEE7managerERKNS1_15function_bufferERS6_NS1_30functor_manager_operation_typeENS1_16function_ptr_tagE
FNDA:9,_ZN5boost6detail8function15functor_managerIPFvvEE6manageERKNS1_15function_bufferERS6_NS1_30functor_manager_operation_typeE
FNDA:9,_ZN5boost13function_baseC2Ev
FNDA:9,_ZNK5boost13function_base28has_trivial_copy_and_destroyEv
FNF:5
FNH:5
DA:238,9
DA:241,9
DA:242,0
DA:243,9
DA:244,0
DA:245,0
DA:246,9
DA:247,9
DA:248,0
DA:249,0
DA:250,0
DA:252,0
DA:253,0
DA:254,0
DA:255,0
DA:256,0
DA:258,9
DA:300,9
DA:303,9
DA:304,9
DA:373,9
DA:377,9
DA:378,0
DA:379,0
DA:380,0
DA:381,0
DA:382,9
DA:384,9
DA:509,9
DA:586,9
DA:587,9
LF:31
LH:16
end_of_record
TN:
SF:/home/tyler/src/wren/build/include/boost/function/function_fwd.hpp
FN:17,_ZN5boost8functionIFvvEED2Ev
FNDA:9,_ZN5boost8functionIFvvEED2Ev
FNF:1
FNH:1
LF:0
LH:0
end_of_record
TN:
SF:/home/tyler/src/wren/build/include/boost/function/function_template.hpp
FN:423,426,_ZNK5boost6detail8function12basic_vtableIvJEE9assign_toIPFvvEEEbT_RNS1_15function_bufferE
FN:435,447,_ZNK5boost6detail8function12basic_vtableIvJEE5clearERNS1_15function_bufferE
FN:453,462,_ZNK5boost6detail8function12basic_vtableIvJEE9assign_toIPFvvEEEbT_RNS1_15function_bufferENS1_16function_ptr_tagE
FN:55,61,_ZN5boost6detail8function21void_function_invokerIPFvvEvJEE6invokeERNS1_15function_bufferE
FN:621,623,_ZNK5boost10function_nIvJEE10get_vtableEv
FN:645,653,_ZN5boost10function_nIvJEEC2IPFvvEEET_NS_10enable_if_IXntsr11is_integralIS5_EE5valueEiE4typeE
FN:677,677,_ZN5boost10function_nIvJEED2Ev
FN:774,781,_ZN5boost10function_nIvJEE5clearEv
FN:814,845,_ZN5boost10function_nIvJEE9assign_toIPFvvEEEvT_
FN:976,983,_ZN5boost8functionIFvvEEC2IPS1_EET_NS_10enable_if_IXntsr11is_integralIS5_EE5valueEiE4typeE
FNDA:9,_ZNK5boost6detail8function12basic_vtableIvJEE9assign_toIPFvvEEEbT_RNS1_15function_bufferE
FNDA:9,_ZNK5boost6detail8function12basic_vtableIvJEE5clearERNS1_15function_bufferE
FNDA:9,_ZNK5boost6detail8function12basic_vtableIvJEE9assign_toIPFvvEEEbT_RNS1_15function_bufferENS1_16function_ptr_tagE
FNDA:9,_ZN5boost6detail8function21void_function_invokerIPFvvEvJEE6invokeERNS1_15function_bufferE
FNDA:0,_ZNK5boost10function_nIvJEE10get_vtableEv
FNDA:9,_ZN5boost10function_nIvJEEC2IPFvvEEET_NS_10enable_if_IXntsr11is_integralIS5_EE5valueEiE4typeE
FNDA:9,_ZN5boost10function_nIvJEED2Ev
FNDA:9,_ZN5boost10function_nIvJEE5clearEv
FNDA:9,_ZN5boost10function_nIvJEE9assign_toIPFvvEEEvT_
FNDA:9,_ZN5boost8functionIFvvEEC2IPS1_EET_NS_10enable_if_IXntsr11is_integralIS5_EE5valueEiE4typeE
FNF:10
FNH:9
DA:55,9
DA:59,9
DA:60,9
DA:61,9
DA:423,9
DA:426,9
DA:435,9
DA:442,9
DA:443,9
DA:447,9
DA:453,9
DA:455,9
DA:456,9
DA:457,9
DA:458,9
DA:460,0
DA:462,9
DA:621,0
DA:622,0
DA:623,0
DA:645,9
DA:650,9
DA:652,9
DA:653,9
DA:677,9
DA:774,9
DA:776,9
DA:777,9
DA:778,0
DA:779,9
DA:780,9
DA:781,9
DA:814,9
DA:835,9
DA:836,9
DA:841,9
DA:842,9
DA:843,9
DA:844,0
DA:845,9
DA:976,9
DA:981,9
DA:983,9
LF:43
LH:37
end_of_record
TN:
SF:/home/tyler/src/wren/build/include/boost/smart_ptr/detail/operator_bool.hpp
FN:61,63,_ZNK5boost10shared_ptrINS_23basic_wrap_stringstreamIcEEEntEv
FNDA:0,_ZNK5boost10shared_ptrINS_23basic_wrap_stringstreamIcEEEntEv
FNF:1
FNH:0
DA:61,0
DA:63,0
LF:2
LH:0
end_of_record
TN:
SF:/home/tyler/src/wren/build/include/boost/smart_ptr/detail/shared_count.hpp
FN:127,132,_ZN5boost6detail12shared_countC2Ev
FN:141,169,_ZN5boost6detail12shared_countC2INS_10test_tools9tt_detail28tolerance_evaluation_contextIfEEEEPT_
FN:141,169,_ZN5boost6detail12shared_countC2INS_23basic_wrap_stringstreamIcEEEEPT_
FN:430,436,_ZN5boost6detail12shared_countD2Ev
FN:438,444,_ZN5boost6detail12shared_countC2ERKS1_
FN:475,480,_ZN5boost6detail12shared_count4swapERS1_
FNDA:24,_ZN5boost6detail12shared_countC2Ev
FNDA:3,_ZN5boost6detail12shared_countC2INS_10test_tools9tt_detail28tolerance_evaluation_contextIfEEEEPT_
FNDA:0,_ZN5boost6detail12shared_countC2INS_23basic_wrap_stringstreamIcEEEEPT_
FNDA:51,_ZN5boost6detail12shared_countD2Ev
FNDA:24,_ZN5boost6detail12shared_countC2ERKS1_
FNDA:3,_ZN5boost6detail12shared_count4swapERS1_
FNF:6
FNH:5
DA:127,24
DA:132,24
DA:141,3
DA:150,3
DA:151,3
DA:154,0
DA:155,0
DA:156,0
DA:169,3
DA:430,51
DA:432,51
DA:436,51
DA:438,24
DA:443,24
DA:444,24
DA:475,3
DA:477,3
DA:478,3
DA:479,3
DA:480,3
LF:20
LH:17
end_of_record
TN:
SF:/home/tyler/src/wren/build/include/boost/smart_ptr/detail/sp_counted_base_gcc_atomic.hpp
FN:106,109,_ZN5boost6detail15sp_counted_base12add_ref_copyEv
FN:116,123,_ZN5boost6detail15sp_counted_base7releaseEv
FN:130,136,_ZN5boost6detail15sp_counted_base12weak_releaseEv
FN:33,36,_ZN5boost6detail16atomic_incrementEPj
FN:38,40,_ZN5boost6detail16atomic_decrementEPj
FN:82,84,_ZN5boost6detail15sp_counted_baseC2Ev
FN:86,88,_ZN5boost6detail15sp_counted_baseD0Ev
FN:86,88,_ZN5boost6detail15sp_counted_baseD2Ev
FN:97,100,_ZN5boost6detail15sp_counted_base7destroyEv
FNDA:3,_ZN5boost6detail15sp_counted_base12add_ref_copyEv
FNDA:6,_ZN5boost6detail15sp_counted_base7releaseEv
FNDA:3,_ZN5boost6detail15sp_counted_base12weak_releaseEv
FNDA:3,_ZN5boost6detail16atomic_incrementEPj
FNDA:9,_ZN5boost6detail16atomic_decrementEPj
FNDA:3,_ZN5boost6detail15sp_counted_baseC2Ev
FNDA:0,_ZN5boost6detail15sp_counted_baseD0Ev
FNDA:3,_ZN5boost6detail15sp_counted_baseD2Ev
FNDA:3,_ZN5boost6detail15sp_counted_base7destroyEv
FNF:9
FNH:8
DA:33,3
DA:35,3
DA:36,3
DA:38,9
DA:40,9
DA:82,6
DA:83,3
DA:84,3
DA:86,3
DA:87,0
DA:88,3
DA:97,3
DA:99,3
DA:100,3
DA:106,3
DA:108,3
DA:109,3
DA:116,6
DA:118,6
DA:120,3
DA:121,3
DA:122,3
DA:123,6
DA:130,3
DA:132,3
DA:134,3
DA:135,3
DA:136,3
LF:28
LH:27
end_of_record
TN:
SF:/home/tyler/src/wren/build/include/boost/smart_ptr/detail/sp_counted_impl.hpp
FN:102,_ZN5boost6detail17sp_counted_impl_pINS_10test_tools9tt_detail28tolerance_evaluation_contextIfEEE19get_untyped_deleterEv
FN:102,_ZN5boost6detail17sp_counted_impl_pINS_23basic_wrap_stringstreamIcEEE19get_untyped_deleterEv
FN:64,_ZN5boost6detail17sp_counted_impl_pINS_10test_tools9tt_detail28tolerance_evaluation_contextIfEEED0Ev
FN:64,_ZN5boost6detail17sp_counted_impl_pINS_10test_tools9tt_detail28tolerance_evaluation_contextIfEEED2Ev
FN:64,_ZN5boost6detail17sp_counted_impl_pINS_23basic_wrap_stringstreamIcEEED0Ev
FN:64,_ZN5boost6detail17sp_counted_impl_pINS_23basic_wrap_stringstreamIcEEED2Ev
FN:77,_ZN5boost6detail17sp_counted_impl_pINS_10test_tools9tt_detail28tolerance_evaluation_contextIfEEEC2EPS5_
FN:77,_ZN5boost6detail17sp_counted_impl_pINS_23basic_wrap_stringstreamIcEEEC2EPS3_
FN:84,_ZN5boost6detail17sp_counted_impl_pINS_10test_tools9tt_detail28tolerance_evaluation_contextIfEEE7disposeEv
FN:84,_ZN5boost6detail17sp_counted_impl_pINS_23basic_wrap_stringstreamIcEEE7disposeEv
FN:92,_ZN5boost6detail17sp_counted_impl_pINS_10test_tools9tt_detail28tolerance_evaluation_contextIfEEE11get_deleterERKSt9type_info
FN:92,_ZN5boost6detail17sp_counted_impl_pINS_23basic_wrap_stringstreamIcEEE11get_deleterERKSt9type_info
FN:97,_ZN5boost6detail17sp_counted_impl_pINS_10test_tools9tt_detail28tolerance_evaluation_contextIfEEE17get_local_deleterERKSt9type_info
FN:97,_ZN5boost6detail17sp_counted_impl_pINS_23basic_wrap_stringstreamIcEEE17get_local_deleterERKSt9type_info
FNDA:0,_ZN5boost6detail17sp_counted_impl_pINS_10test_tools9tt_detail28tolerance_evaluation_contextIfEEE19get_untyped_deleterEv
FNDA:0,_ZN5boost6detail17sp_counted_impl_pINS_23basic_wrap_stringstreamIcEEE19get_untyped_deleterEv
FNDA:3,_ZN5boost6detail17sp_counted_impl_pINS_10test_tools9tt_detail28tolerance_evaluation_contextIfEEED0Ev
FNDA:3,_ZN5boost6detail17sp_counted_impl_pINS_10test_tools9tt_detail28tolerance_evaluation_contextIfEEED2Ev
FNDA:0,_ZN5boost6detail17sp_counted_impl_pINS_23basic_wrap_stringstreamIcEEED0Ev
FNDA:0,_ZN5boost6detail17sp_counted_impl_pINS_23basic_wrap_stringstreamIcEEED2Ev
FNDA:3,_ZN5boost6detail17sp_counted_impl_pINS_10test_tools9tt_detail28tolerance_evaluation_contextIfEEEC2EPS5_
FNDA:0,_ZN5boost6detail17sp_counted_impl_pINS_23basic_wrap_stringstreamIcEEEC2EPS3_
FNDA:3,_ZN5boost6detail17sp_counted_impl_pINS_10test_tools9tt_detail28tolerance_evaluation_contextIfEEE7disposeEv
FNDA:0,_ZN5boost6detail17sp_counted_impl_pINS_23basic_wrap_stringstreamIcEEE7disposeEv
FNDA:0,_ZN5boost6detail17sp_counted_impl_pINS_10test_tools9tt_detail28tolerance_evaluation_contextIfEEE11get_deleterERKSt9type_info
FNDA:0,_ZN5boost6detail17sp_counted_impl_pINS_23basic_wrap_stringstreamIcEEE11get_deleterERKSt9type_info
FNDA:0,_ZN5boost6detail17sp_counted_impl_pINS_10test_tools9tt_detail28tolerance_evaluation_contextIfEEE17get_local_deleterERKSt9type_info
FNDA:0,_ZN5boost6detail17sp_counted_impl_pINS_23basic_wrap_stringstreamIcEEE17get_local_deleterERKSt9type_info
FNF:14
FNH:4
DA:77,6
DA:78,3
DA:82,3
DA:84,3
DA:89,3
DA:90,3
DA:92,0
DA:94,0
DA:97,0
DA:99,0
DA:102,0
DA:104,0
LF:12
LH:6
end_of_record
TN:
SF:/home/tyler/src/wren/build/include/boost/smart_ptr/shared_ptr.hpp
FN:237,239,_ZN5boost6detail26sp_enable_shared_from_thisEz
FN:278,282,_ZN5boost6detail20sp_pointer_constructINS_10test_tools9tt_detail28assertion_evaluation_contextENS3_28tolerance_evaluation_contextIfEEEEvPNS_10shared_ptrIT_EEPT0_RNS0_12shared_countE
FN:278,282,_ZN5boost6detail20sp_pointer_constructINS_23basic_wrap_stringstreamIcEES3_EEvPNS_10shared_ptrIT_EEPT0_RNS0_12shared_countE
FN:336,_ZN5boost10shared_ptrINS_10test_tools9tt_detail28assertion_evaluation_contextEED2Ev
FN:336,_ZN5boost10shared_ptrINS_23basic_wrap_stringstreamIcEEED2Ev
FN:347,349,_ZN5boost10shared_ptrINS_23basic_wrap_stringstreamIcEEEC2Ev
FN:372,375,_ZN5boost10shared_ptrINS_10test_tools9tt_detail28assertion_evaluation_contextEEC2INS2_28tolerance_evaluation_contextIfEEEEPT_
FN:372,375,_ZN5boost10shared_ptrINS_23basic_wrap_stringstreamIcEEEC2IS2_EEPT_
FN:459,461,_ZN5boost10shared_ptrINS_10test_tools9tt_detail28assertion_evaluation_contextEEC2ERKS4_
FN:459,461,_ZN5boost10shared_ptrINS_23basic_wrap_stringstreamIcEEEC2ERKS3_
FN:730,734,_ZN5boost10shared_ptrINS_23basic_wrap_stringstreamIcEEE5resetIS2_EEvPT_
FN:776,779,_ZNK5boost10shared_ptrINS_23basic_wrap_stringstreamIcEEEdeEv
FN:782,785,_ZNK5boost10shared_ptrINS_10test_tools9tt_detail28assertion_evaluation_contextEEptEv
FN:782,785,_ZNK5boost10shared_ptrINS_23basic_wrap_stringstreamIcEEEptEv
FN:814,818,_ZN5boost10shared_ptrINS_23basic_wrap_stringstreamIcEEE4swapERS3_
FNDA:3,_ZN5boost6detail26sp_enable_shared_from_thisEz
FNDA:3,_ZN5boost6detail20sp_pointer_constructINS_10test_tools9tt_detail28assertion_evaluation_contextENS3_28tolerance_evaluation_contextIfEEEEvPNS_10shared_ptrIT_EEPT0_RNS0_12shared_countE
FNDA:0,_ZN5boost6detail20sp_pointer_constructINS_23basic_wrap_stringstreamIcEES3_EEvPNS_10shared_ptrIT_EEPT0_RNS0_12shared_countE
FNDA:6,_ZN5boost10shared_ptrINS_10test_tools9tt_detail28assertion_evaluation_contextEED2Ev
FNDA:42,_ZN5boost10shared_ptrINS_23basic_wrap_stringstreamIcEEED2Ev
FNDA:21,_ZN5boost10shared_ptrINS_23basic_wrap_stringstreamIcEEEC2Ev
FNDA:3,_ZN5boost10shared_ptrINS_10test_tools9tt_detail28assertion_evaluation_contextEEC2INS2_28tolerance_evaluation_contextIfEEEEPT_
FNDA:0,_ZN5boost10shared_ptrINS_23basic_wrap_stringstreamIcEEEC2IS2_EEPT_
FNDA:3,_ZN5boost10shared_ptrINS_10test_tools9tt_detail28assertion_evaluation_contextEEC2ERKS4_
FNDA:21,_ZN5boost10shared_ptrINS_23basic_wrap_stringstreamIcEEEC2ERKS3_
FNDA:0,_ZN5boost10shared_ptrINS_23basic_wrap_stringstreamIcEEE5resetIS2_EEvPT_
FNDA:0,_ZNK5boost10shared_ptrINS_23basic_wrap_stringstreamIcEEEdeEv
FNDA:3,_ZNK5boost10shared_ptrINS_10test_tools9tt_detail28assertion_evaluation_contextEEptEv
FNDA:0,_ZNK5boost10shared_ptrINS_23basic_wrap_stringstreamIcEEEptEv
FNDA:0,_ZN5boost10shared_ptrINS_23basic_wrap_stringstreamIcEEE4swapERS3_
FNF:15
FNH:9
DA:237,3
DA:239,3
DA:278,3
DA:280,3
DA:281,3
DA:282,3
DA:347,21
DA:349,21
DA:372,3
DA:374,3
DA:375,3
DA:459,24
DA:461,24
DA:730,0
DA:732,0
DA:733,0
DA:734,0
DA:776,0
DA:778,0
DA:779,0
DA:782,3
DA:784,3
DA:785,3
DA:814,0
DA:816,0
DA:817,0
DA:818,0
LF:27
LH:16
end_of_record
TN:
SF:/home/tyler/src/wren/build/include/boost/test/tools/assertion.hpp
FN:174,174,_ZN5boost10test_tools9assertion2op2EQIN4wren4math3MatIfLm2ELm2EEES7_vE4evalERKS7_SA_
FN:174,174,_ZN5boost10test_tools9assertion2op2EQIN4wren4math3MatIfLm2ELm2EEES7_vE6reportINS1_10value_exprIRS7_EEEEvRSoRKT_RKS7_
FN:174,174,_ZN5boost10test_tools9assertion2op2EQIN4wren4math3MatIfLm2ELm2EEES7_vE6revertEv
FN:174,174,_ZN5boost10test_tools9assertion2op2EQIN4wren4math3MatIfLm4ELm4EEENS5_5Mat4fEvE4evalERKS7_RKS8_
FN:174,174,_ZN5boost10test_tools9assertion2op2EQIN4wren4math3MatIfLm4ELm4EEENS5_5Mat4fEvE6reportINS1_10value_exprIRKS7_EEEEvRSoRKT_RKS8_
FN:174,174,_ZN5boost10test_tools9assertion2op2EQIN4wren4math3MatIfLm4ELm4EEENS5_5Mat4fEvE6revertEv
FN:174,174,_ZN5boost10test_tools9assertion2op2EQIN4wren4math3VecIfLm2EEENS5_5Vec2fEvE4evalERKS7_RKS8_
FN:174,174,_ZN5boost10test_tools9assertion2op2EQIN4wren4math3VecIfLm2EEENS5_5Vec2fEvE6reportINS1_10value_exprIRS7_EEEEvRSoRKT_RKS8_
FN:174,174,_ZN5boost10test_tools9assertion2op2EQIN4wren4math3VecIfLm2EEENS5_5Vec2fEvE6revertEv
FN:174,174,_ZN5boost10test_tools9assertion2op2EQIN4wren4math5Mat4fES6_vE4evalERKS6_S9_
FN:174,174,_ZN5boost10test_tools9assertion2op2EQIN4wren4math5Mat4fES6_vE6reportINS1_10value_exprIRKS6_EEEEvRSoRKT_SB_
FN:174,174,_ZN5boost10test_tools9assertion2op2EQIN4wren4math5Mat4fES6_vE6revertEv
FN:174,174,_ZN5boost10test_tools9assertion2op2EQIN4wren4math5Vec2fES6_vE4evalERKS6_S9_
FN:174,174,_ZN5boost10test_tools9assertion2op2EQIN4wren4math5Vec2fES6_vE6reportINS1_10value_exprIRS6_EEEEvRSoRKT_RKS6_
FN:174,174,_ZN5boost10test_tools9assertion2op2EQIN4wren4math5Vec2fES6_vE6revertEv
FN:174,174,_ZN5boost10test_tools9assertion2op2EQIN4wren4math5Vec3fES6_vE4evalERKS6_S9_
FN:174,174,_ZN5boost10test_tools9assertion2op2EQIN4wren4math5Vec3fES6_vE6reportINS1_10value_exprIRS6_EEEEvRSoRKT_RKS6_
FN:174,174,_ZN5boost10test_tools9assertion2op2EQIN4wren4math5Vec3fES6_vE6revertEv
FN:227,227,_ZN5boost10test_tools9assertion15expression_baseINS1_10value_exprIRKN4wren4math3MatIfLm4ELm4EEEEES7_EeqIRNS5_5Mat4fEEENS1_11binary_exprISA_T_NS1_2op2EQIS7_NSB_4RhsTISG_E4typeEvEEEEOSG_
FN:227,227,_ZN5boost10test_tools9assertion15expression_baseINS1_10value_exprIRKN4wren4math5Mat4fEEES6_EeqIS8_EENS1_11binary_exprIS9_T_NS1_2op2EQIS6_NSA_4RhsTISD_E4typeEvEEEEOSD_
FN:227,227,_ZN5boost10test_tools9assertion15expression_baseINS1_10value_exprIRN4wren4math3MatIfLm2ELm2EEEEES7_EeqIS8_EENS1_11binary_exprIS9_T_NS1_2op2EQIS7_NSA_4RhsTISD_E4typeEvEEEEOSD_
FN:227,227,_ZN5boost10test_tools9assertion15expression_baseINS1_10value_exprIRN4wren4math3VecIfLm2EEEEES7_EeqIRNS5_5Vec2fEEENS1_11binary_exprIS9_T_NS1_2op2EQIS7_NSA_4RhsTISF_E4typeEvEEEEOSF_
FN:227,227,_ZN5boost10test_tools9assertion15expression_baseINS1_10value_exprIRN4wren4math5Vec2fEEES6_EeqIRKS6_EENS1_11binary_exprIS8_T_NS1_2op2EQIS6_NS9_4RhsTISE_E4typeEvEEEEOSE_
FN:227,227,_ZN5boost10test_tools9assertion15expression_baseINS1_10value_exprIRN4wren4math5Vec3fEEES6_EeqIRKS6_EENS1_11binary_exprIS8_T_NS1_2op2EQIS6_NS9_4RhsTISE_E4typeEvEEEEOSE_
FN:227,227,_ZN5boost10test_tools9assertion15expression_baseINS1_10value_exprIRfEEfEeqIRKfEENS1_11binary_exprIS5_T_NS1_2op2EQIfNS6_4RhsTISB_E4typeEvEEEEOSB_
FN:227,227,_ZN5boost10test_tools9assertion15expression_baseINS1_10value_exprIRfEEfEeqIdEENS1_11binary_exprIS5_T_NS1_2op2EQIfNS6_4RhsTIS9_E4typeEvEEEEOS9_
FN:227,227,_ZN5boost10test_tools9assertion15expression_baseINS1_10value_exprISt5arrayIfLm16EEEES5_EeqIRS5_EENS1_11binary_exprIS6_T_NS1_2op2EQIS5_NS7_4RhsTISB_E4typeEvEEEEOSB_
FN:272,274,_ZN5boost10test_tools9assertion10value_exprIRKN4wren4math3MatIfLm4ELm4EEEEC2EOS9_
FN:272,274,_ZN5boost10test_tools9assertion10value_exprIRKN4wren4math5Mat4fEEC2EOS8_
FN:272,274,_ZN5boost10test_tools9assertion10value_exprIRN4wren4math3MatIfLm2ELm2EEEEC2EOS8_
FN:272,274,_ZN5boost10test_tools9assertion10value_exprIRN4wren4math3VecIfLm2EEEEC2EOS8_
FN:272,274,_ZN5boost10test_tools9assertion10value_exprIRN4wren4math5Vec2fEEC2EOS7_
FN:272,274,_ZN5boost10test_tools9assertion10value_exprIRN4wren4math5Vec3fEEC2EOS7_
FN:272,274,_ZN5boost10test_tools9assertion10value_exprIRfEC2EOS4_
FN:272,274,_ZN5boost10test_tools9assertion10value_exprISt5arrayIfLm16EEEC2EOS5_
FN:275,277,_ZN5boost10test_tools9assertion10value_exprIRKN4wren4math3MatIfLm4ELm4EEEEC2ES8_
FN:275,277,_ZN5boost10test_tools9assertion10value_exprIRKN4wren4math5Mat4fEEC2ES7_
FN:275,277,_ZN5boost10test_tools9assertion10value_exprIRN4wren4math3MatIfLm2ELm2EEEEC2ES7_
FN:275,277,_ZN5boost10test_tools9assertion10value_exprIRN4wren4math3VecIfLm2EEEEC2ES7_
FN:275,277,_ZN5boost10test_tools9assertion10value_exprIRN4wren4math5Vec2fEEC2ES6_
FN:275,277,_ZN5boost10test_tools9assertion10value_exprIRN4wren4math5Vec3fEEC2ES6_
FN:275,277,_ZN5boost10test_tools9assertion10value_exprIRfEC2ES3_
FN:275,277,_ZN5boost10test_tools9assertion10value_exprISt5arrayIfLm16EEEC2EOS4_
FN:285,287,_ZNK5boost10test_tools9assertion10value_exprIRKN4wren4math3MatIfLm4ELm4EEEE5valueEv
FN:285,287,_ZNK5boost10test_tools9assertion10value_exprIRKN4wren4math5Mat4fEE5valueEv
FN:285,287,_ZNK5boost10test_tools9assertion10value_exprIRN4wren4math3MatIfLm2ELm2EEEE5valueEv
FN:285,287,_ZNK5boost10test_tools9assertion10value_exprIRN4wren4math3VecIfLm2EEEE5valueEv
FN:285,287,_ZNK5boost10test_tools9assertion10value_exprIRN4wren4math5Vec2fEE5valueEv
FN:285,287,_ZNK5boost10test_tools9assertion10value_exprIRN4wren4math5Vec3fEE5valueEv
FN:285,287,_ZNK5boost10test_tools9assertion10value_exprIRfE5valueEv
FN:285,287,_ZNK5boost10test_tools9assertion10value_exprISt5arrayIfLm16EEE5valueEv
FN:289,292,_ZNK5boost10test_tools9assertion10value_exprIRKN4wren4math3MatIfLm4ELm4EEEE6reportERSo
FN:289,292,_ZNK5boost10test_tools9assertion10value_exprIRKN4wren4math5Mat4fEE6reportERSo
FN:289,292,_ZNK5boost10test_tools9assertion10value_exprIRN4wren4math3MatIfLm2ELm2EEEE6reportERSo
FN:289,292,_ZNK5boost10test_tools9assertion10value_exprIRN4wren4math3VecIfLm2EEEE6reportERSo
FN:289,292,_ZNK5boost10test_tools9assertion10value_exprIRN4wren4math5Vec2fEE6reportERSo
FN:289,292,_ZNK5boost10test_tools9assertion10value_exprIRN4wren4math5Vec3fEE6reportERSo
FN:289,292,_ZNK5boost10test_tools9assertion10value_exprIRfE6reportERSo
FN:351,354,_ZN5boost10test_tools9assertion11binary_exprINS1_10value_exprIRKN4wren4math3MatIfLm4ELm4EEEEERNS5_5Mat4fENS1_2op2EQIS7_SB_vEEEC2EOSA_SC_
FN:351,354,_ZN5boost10test_tools9assertion11binary_exprINS1_10value_exprIRKN4wren4math5Mat4fEEES8_NS1_2op2EQIS6_S6_vEEEC2EOS9_S8_
FN:351,354,_ZN5boost10test_tools9assertion11binary_exprINS1_10value_exprIRN4wren4math3MatIfLm2ELm2EEEEES8_NS1_2op2EQIS7_S7_vEEEC2EOS9_S8_
FN:351,354,_ZN5boost10test_tools9assertion11binary_exprINS1_10value_exprIRN4wren4math3VecIfLm2EEEEERNS5_5Vec2fENS1_2op2EQIS7_SA_vEEEC2EOS9_SB_
FN:351,354,_ZN5boost10test_tools9assertion11binary_exprINS1_10value_exprIRN4wren4math5Vec2fEEERKS6_NS1_2op2EQIS6_S6_vEEEC2EOS8_SA_
FN:351,354,_ZN5boost10test_tools9assertion11binary_exprINS1_10value_exprIRN4wren4math5Vec3fEEERKS6_NS1_2op2EQIS6_S6_vEEEC2EOS8_SA_
FN:351,354,_ZN5boost10test_tools9assertion11binary_exprINS1_10value_exprIRfEERKfNS1_2op2EQIffvEEEC2EOS5_S7_
FN:351,354,_ZN5boost10test_tools9assertion11binary_exprINS1_10value_exprIRfEEdNS1_2op2EQIfdvEEEC2EOS5_Od
FN:351,354,_ZN5boost10test_tools9assertion11binary_exprINS1_10value_exprISt5arrayIfLm16EEEERS5_NS1_2op2EQIS5_S5_vEEEC2EOS6_S7_
FN:363,365,_ZNK5boost10test_tools9assertion11binary_exprINS1_10value_exprIRKN4wren4math3MatIfLm4ELm4EEEEERNS5_5Mat4fENS1_2op2EQIS7_SB_vEEE5valueEv
FN:363,365,_ZNK5boost10test_tools9assertion11binary_exprINS1_10value_exprIRKN4wren4math5Mat4fEEES8_NS1_2op2EQIS6_S6_vEEE5valueEv
FN:363,365,_ZNK5boost10test_tools9assertion11binary_exprINS1_10value_exprIRN4wren4math3MatIfLm2ELm2EEEEES8_NS1_2op2EQIS7_S7_vEEE5valueEv
FN:363,365,_ZNK5boost10test_tools9assertion11binary_exprINS1_10value_exprIRN4wren4math3VecIfLm2EEEEERNS5_5Vec2fENS1_2op2EQIS7_SA_vEEE5valueEv
FN:363,365,_ZNK5boost10test_tools9assertion11binary_exprINS1_10value_exprIRN4wren4math5Vec2fEEERKS6_NS1_2op2EQIS6_S6_vEEE5valueEv
FN:363,365,_ZNK5boost10test_tools9assertion11binary_exprINS1_10value_exprIRN4wren4math5Vec3fEEERKS6_NS1_2op2EQIS6_S6_vEEE5valueEv
FN:363,365,_ZNK5boost10test_tools9assertion11binary_exprINS1_10value_exprIRfEERKfNS1_2op2EQIffvEEE5valueEv
FN:363,365,_ZNK5boost10test_tools9assertion11binary_exprINS1_10value_exprIRfEEdNS1_2op2EQIfdvEEE5valueEv
FN:363,365,_ZNK5boost10test_tools9assertion11binary_exprINS1_10value_exprISt5arrayIfLm16EEEERS5_NS1_2op2EQIS5_S5_vEEE5valueEv
FN:367,369,_ZNK5boost10test_tools9assertion11binary_exprINS1_10value_exprIRKN4wren4math3MatIfLm4ELm4EEEEERNS5_5Mat4fENS1_2op2EQIS7_SB_vEEE6reportERSo
FN:367,369,_ZNK5boost10test_tools9assertion11binary_exprINS1_10value_exprIRKN4wren4math5Mat4fEEES8_NS1_2op2EQIS6_S6_vEEE6reportERSo
FN:367,369,_ZNK5boost10test_tools9assertion11binary_exprINS1_10value_exprIRN4wren4math3MatIfLm2ELm2EEEEES8_NS1_2op2EQIS7_S7_vEEE6reportERSo
FN:367,369,_ZNK5boost10test_tools9assertion11binary_exprINS1_10value_exprIRN4wren4math3VecIfLm2EEEEERNS5_5Vec2fENS1_2op2EQIS7_SA_vEEE6reportERSo
FN:367,369,_ZNK5boost10test_tools9assertion11binary_exprINS1_10value_exprIRN4wren4math5Vec2fEEERKS6_NS1_2op2EQIS6_S6_vEEE6reportERSo
FN:367,369,_ZNK5boost10test_tools9assertion11binary_exprINS1_10value_exprIRN4wren4math5Vec3fEEERKS6_NS1_2op2EQIS6_S6_vEEE6reportERSo
FN:367,369,_ZNK5boost10test_tools9assertion11binary_exprINS1_10value_exprIRfEERKfNS1_2op2EQIffvEEE6reportERSo
FN:367,369,_ZNK5boost10test_tools9assertion11binary_exprINS1_10value_exprIRfEEdNS1_2op2EQIfdvEEE6reportERSo
FN:367,369,_ZNK5boost10test_tools9assertion11binary_exprINS1_10value_exprISt5arrayIfLm16EEEERS5_NS1_2op2EQIS5_S5_vEEE6reportERSo
FN:372,382,_ZNK5boost10test_tools9assertion11binary_exprINS1_10value_exprIRKN4wren4math3MatIfLm4ELm4EEEEERNS5_5Mat4fENS1_2op2EQIS7_SB_vEEE8evaluateEb
FN:372,382,_ZNK5boost10test_tools9assertion11binary_exprINS1_10value_exprIRKN4wren4math5Mat4fEEES8_NS1_2op2EQIS6_S6_vEEE8evaluateEb
FN:372,382,_ZNK5boost10test_tools9assertion11binary_exprINS1_10value_exprIRN4wren4math3MatIfLm2ELm2EEEEES8_NS1_2op2EQIS7_S7_vEEE8evaluateEb
FN:372,382,_ZNK5boost10test_tools9assertion11binary_exprINS1_10value_exprIRN4wren4math3VecIfLm2EEEEERNS5_5Vec2fENS1_2op2EQIS7_SA_vEEE8evaluateEb
FN:372,382,_ZNK5boost10test_tools9assertion11binary_exprINS1_10value_exprIRN4wren4math5Vec2fEEERKS6_NS1_2op2EQIS6_S6_vEEE8evaluateEb
FN:372,382,_ZNK5boost10test_tools9assertion11binary_exprINS1_10value_exprIRN4wren4math5Vec3fEEERKS6_NS1_2op2EQIS6_S6_vEEE8evaluateEb
FN:372,382,_ZNK5boost10test_tools9assertion11binary_exprINS1_10value_exprIRfEERKfNS1_2op2EQIffvEEE8evaluateEb
FN:372,382,_ZNK5boost10test_tools9assertion11binary_exprINS1_10value_exprIRfEEdNS1_2op2EQIfdvEEE8evaluateEb
FN:372,382,_ZNK5boost10test_tools9assertion11binary_exprINS1_10value_exprISt5arrayIfLm16EEEERS5_NS1_2op2EQIS5_S5_vEEE8evaluateEb
FN:404,406,_ZNK5boost10test_tools9assertion4seedpmIRKN4wren4math3MatIfLm4ELm4EEEEENS1_10value_exprIT_EEOSB_
FN:404,406,_ZNK5boost10test_tools9assertion4seedpmIRKN4wren4math5Mat4fEEENS1_10value_exprIT_EEOSA_
FN:404,406,_ZNK5boost10test_tools9assertion4seedpmIRN4wren4math3MatIfLm2ELm2EEEEENS1_10value_exprIT_EEOSA_
FN:404,406,_ZNK5boost10test_tools9assertion4seedpmIRN4wren4math3VecIfLm2EEEEENS1_10value_exprIT_EEOSA_
FN:404,406,_ZNK5boost10test_tools9assertion4seedpmIRN4wren4math5Vec2fEEENS1_10value_exprIT_EEOS9_
FN:404,406,_ZNK5boost10test_tools9assertion4seedpmIRN4wren4math5Vec3fEEENS1_10value_exprIT_EEOS9_
FN:404,406,_ZNK5boost10test_tools9assertion4seedpmIRfEENS1_10value_exprIT_EEOS6_
FN:404,406,_ZNK5boost10test_tools9assertion4seedpmISt5arrayIfLm16EEEENS1_10value_exprIT_EEOS7_
FNDA:1,_ZN5boost10test_tools9assertion2op2EQIN4wren4math3MatIfLm2ELm2EEES7_vE4evalERKS7_SA_
FNDA:0,_ZN5boost10test_tools9assertion2op2EQIN4wren4math3MatIfLm2ELm2EEES7_vE6reportINS1_10value_exprIRS7_EEEEvRSoRKT_RKS7_
FNDA:0,_ZN5boost10test_tools9assertion2op2EQIN4wren4math3MatIfLm2ELm2EEES7_vE6revertEv
FNDA:2,_ZN5boost10test_tools9assertion2op2EQIN4wren4math3MatIfLm4ELm4EEENS5_5Mat4fEvE4evalERKS7_RKS8_
FNDA:0,_ZN5boost10test_tools9assertion2op2EQIN4wren4math3MatIfLm4ELm4EEENS5_5Mat4fEvE6reportINS1_10value_exprIRKS7_EEEEvRSoRKT_RKS8_
FNDA:0,_ZN5boost10test_tools9assertion2op2EQIN4wren4math3MatIfLm4ELm4EEENS5_5Mat4fEvE6revertEv
FNDA:1,_ZN5boost10test_tools9assertion2op2EQIN4wren4math3VecIfLm2EEENS5_5Vec2fEvE4evalERKS7_RKS8_
FNDA:0,_ZN5boost10test_tools9assertion2op2EQIN4wren4math3VecIfLm2EEENS5_5Vec2fEvE6reportINS1_10value_exprIRS7_EEEEvRSoRKT_RKS8_
FNDA:0,_ZN5boost10test_tools9assertion2op2EQIN4wren4math3VecIfLm2EEENS5_5Vec2fEvE6revertEv
FNDA:2,_ZN5boost10test_tools9assertion2op2EQIN4wren4math5Mat4fES6_vE4evalERKS6_S9_
FNDA:0,_ZN5boost10test_tools9assertion2op2EQIN4wren4math5Mat4fES6_vE6reportINS1_10value_exprIRKS6_EEEEvRSoRKT_SB_
FNDA:0,_ZN5boost10test_tools9assertion2op2EQIN4wren4math5Mat4fES6_vE6revertEv
FNDA:4,_ZN5boost10test_tools9assertion2op2EQIN4wren4math5Vec2fES6_vE4evalERKS6_S9_
FNDA:0,_ZN5boost10test_tools9assertion2op2EQIN4wren4math5Vec2fES6_vE6reportINS1_10value_exprIRS6_EEEEvRSoRKT_RKS6_
FNDA:0,_ZN5boost10test_tools9assertion2op2EQIN4wren4math5Vec2fES6_vE6revertEv
FNDA:3,_ZN5boost10test_tools9assertion2op2EQIN4wren4math5Vec3fES6_vE4evalERKS6_S9_
FNDA:0,_ZN5boost10test_tools9assertion2op2EQIN4wren4math5Vec3fES6_vE6reportINS1_10value_exprIRS6_EEEEvRSoRKT_RKS6_
FNDA:0,_ZN5boost10test_tools9assertion2op2EQIN4wren4math5Vec3fES6_vE6revertEv
FNDA:2,_ZN5boost10test_tools9assertion15expression_baseINS1_10value_exprIRKN4wren4math3MatIfLm4ELm4EEEEES7_EeqIRNS5_5Mat4fEEENS1_11binary_exprISA_T_NS1_2op2EQIS7_NSB_4RhsTISG_E4typeEvEEEEOSG_
FNDA:2,_ZN5boost10test_tools9assertion15expression_baseINS1_10value_exprIRKN4wren4math5Mat4fEEES6_EeqIS8_EENS1_11binary_exprIS9_T_NS1_2op2EQIS6_NSA_4RhsTISD_E4typeEvEEEEOSD_
FNDA:1,_ZN5boost10test_tools9assertion15expression_baseINS1_10value_exprIRN4wren4math3MatIfLm2ELm2EEEEES7_EeqIS8_EENS1_11binary_exprIS9_T_NS1_2op2EQIS7_NSA_4RhsTISD_E4typeEvEEEEOSD_
FNDA:1,_ZN5boost10test_tools9assertion15expression_baseINS1_10value_exprIRN4wren4math3VecIfLm2EEEEES7_EeqIRNS5_5Vec2fEEENS1_11binary_exprIS9_T_NS1_2op2EQIS7_NSA_4RhsTISF_E4typeEvEEEEOSF_
FNDA:4,_ZN5boost10test_tools9assertion15expression_baseINS1_10value_exprIRN4wren4math5Vec2fEEES6_EeqIRKS6_EENS1_11binary_exprIS8_T_NS1_2op2EQIS6_NS9_4RhsTISE_E4typeEvEEEEOSE_
FNDA:3,_ZN5boost10test_tools9assertion15expression_baseINS1_10value_exprIRN4wren4math5Vec3fEEES6_EeqIRKS6_EENS1_11binary_exprIS8_T_NS1_2op2EQIS6_NS9_4RhsTISE_E4typeEvEEEEOSE_
FNDA:3,_ZN5boost10test_tools9assertion15expression_baseINS1_10value_exprIRfEEfEeqIRKfEENS1_11binary_exprIS5_T_NS1_2op2EQIfNS6_4RhsTISB_E4typeEvEEEEOSB_
FNDA:4,_ZN5boost10test_tools9assertion15expression_baseINS1_10value_exprIRfEEfEeqIdEENS1_11binary_exprIS5_T_NS1_2op2EQIfNS6_4RhsTIS9_E4typeEvEEEEOS9_
FNDA:1,_ZN5boost10test_tools9assertion15expression_baseINS1_10value_exprISt5arrayIfLm16EEEES5_EeqIRS5_EENS1_11binary_exprIS6_T_NS1_2op2EQIS5_NS7_4RhsTISB_E4typeEvEEEEOSB_
FNDA:2,_ZN5boost10test_tools9assertion10value_exprIRKN4wren4math3MatIfLm4ELm4EEEEC2EOS9_
FNDA:2,_ZN5boost10test_tools9assertion10value_exprIRKN4wren4math5Mat4fEEC2EOS8_
FNDA:1,_ZN5boost10test_tools9assertion10value_exprIRN4wren4math3MatIfLm2ELm2EEEEC2EOS8_
FNDA:1,_ZN5boost10test_tools9assertion10value_exprIRN4wren4math3VecIfLm2EEEEC2EOS8_
FNDA:4,_ZN5boost10test_tools9assertion10value_exprIRN4wren4math5Vec2fEEC2EOS7_
FNDA:3,_ZN5boost10test_tools9assertion10value_exprIRN4wren4math5Vec3fEEC2EOS7_
FNDA:7,_ZN5boost10test_tools9assertion10value_exprIRfEC2EOS4_
FNDA:1,_ZN5boost10test_tools9assertion10value_exprISt5arrayIfLm16EEEC2EOS5_
FNDA:2,_ZN5boost10test_tools9assertion10value_exprIRKN4wren4math3MatIfLm4ELm4EEEEC2ES8_
FNDA:2,_ZN5boost10test_tools9assertion10value_exprIRKN4wren4math5Mat4fEEC2ES7_
FNDA:1,_ZN5boost10test_tools9assertion10value_exprIRN4wren4math3MatIfLm2ELm2EEEEC2ES7_
FNDA:1,_ZN5boost10test_tools9assertion10value_exprIRN4wren4math3VecIfLm2EEEEC2ES7_
FNDA:4,_ZN5boost10test_tools9assertion10value_exprIRN4wren4math5Vec2fEEC2ES6_
FNDA:3,_ZN5boost10test_tools9assertion10value_exprIRN4wren4math5Vec3fEEC2ES6_
FNDA:7,_ZN5boost10test_tools9assertion10value_exprIRfEC2ES3_
FNDA:1,_ZN5boost10test_tools9assertion10value_exprISt5arrayIfLm16EEEC2EOS4_
FNDA:2,_ZNK5boost10test_tools9assertion10value_exprIRKN4wren4math3MatIfLm4ELm4EEEE5valueEv
FNDA:2,_ZNK5boost10test_tools9assertion10value_exprIRKN4wren4math5Mat4fEE5valueEv
FNDA:1,_ZNK5boost10test_tools9assertion10value_exprIRN4wren4math3MatIfLm2ELm2EEEE5valueEv
FNDA:1,_ZNK5boost10test_tools9assertion10value_exprIRN4wren4math3VecIfLm2EEEE5valueEv
FNDA:4,_ZNK5boost10test_tools9assertion10value_exprIRN4wren4math5Vec2fEE5valueEv
FNDA:3,_ZNK5boost10test_tools9assertion10value_exprIRN4wren4math5Vec3fEE5valueEv
FNDA:7,_ZNK5boost10test_tools9assertion10value_exprIRfE5valueEv
FNDA:1,_ZNK5boost10test_tools9assertion10value_exprISt5arrayIfLm16EEE5valueEv
FNDA:0,_ZNK5boost10test_tools9assertion10value_exprIRKN4wren4math3MatIfLm4ELm4EEEE6reportERSo
FNDA:0,_ZNK5boost10test_tools9assertion10value_exprIRKN4wren4math5Mat4fEE6reportERSo
FNDA:0,_ZNK5boost10test_tools9assertion10value_exprIRN4wren4math3MatIfLm2ELm2EEEE6reportERSo
FNDA:0,_ZNK5boost10test_tools9assertion10value_exprIRN4wren4math3VecIfLm2EEEE6reportERSo
FNDA:0,_ZNK5boost10test_tools9assertion10value_exprIRN4wren4math5Vec2fEE6reportERSo
FNDA:0,_ZNK5boost10test_tools9assertion10value_exprIRN4wren4math5Vec3fEE6reportERSo
FNDA:0,_ZNK5boost10test_tools9assertion10value_exprIRfE6reportERSo
FNDA:2,_ZN5boost10test_tools9assertion11binary_exprINS1_10value_exprIRKN4wren4math3MatIfLm4ELm4EEEEERNS5_5Mat4fENS1_2op2EQIS7_SB_vEEEC2EOSA_SC_
FNDA:2,_ZN5boost10test_tools9assertion11binary_exprINS1_10value_exprIRKN4wren4math5Mat4fEEES8_NS1_2op2EQIS6_S6_vEEEC2EOS9_S8_
FNDA:1,_ZN5boost10test_tools9assertion11binary_exprINS1_10value_exprIRN4wren4math3MatIfLm2ELm2EEEEES8_NS1_2op2EQIS7_S7_vEEEC2EOS9_S8_
FNDA:1,_ZN5boost10test_tools9assertion11binary_exprINS1_10value_exprIRN4wren4math3VecIfLm2EEEEERNS5_5Vec2fENS1_2op2EQIS7_SA_vEEEC2EOS9_SB_
FNDA:4,_ZN5boost10test_tools9assertion11binary_exprINS1_10value_exprIRN4wren4math5Vec2fEEERKS6_NS1_2op2EQIS6_S6_vEEEC2EOS8_SA_
FNDA:3,_ZN5boost10test_tools9assertion11binary_exprINS1_10value_exprIRN4wren4math5Vec3fEEERKS6_NS1_2op2EQIS6_S6_vEEEC2EOS8_SA_
FNDA:3,_ZN5boost10test_tools9assertion11binary_exprINS1_10value_exprIRfEERKfNS1_2op2EQIffvEEEC2EOS5_S7_
FNDA:4,_ZN5boost10test_tools9assertion11binary_exprINS1_10value_exprIRfEEdNS1_2op2EQIfdvEEEC2EOS5_Od
FNDA:1,_ZN5boost10test_tools9assertion11binary_exprINS1_10value_exprISt5arrayIfLm16EEEERS5_NS1_2op2EQIS5_S5_vEEEC2EOS6_S7_
FNDA:2,_ZNK5boost10test_tools9assertion11binary_exprINS1_10value_exprIRKN4wren4math3MatIfLm4ELm4EEEEERNS5_5Mat4fENS1_2op2EQIS7_SB_vEEE5valueEv
FNDA:2,_ZNK5boost10test_tools9assertion11binary_exprINS1_10value_exprIRKN4wren4math5Mat4fEEES8_NS1_2op2EQIS6_S6_vEEE5valueEv
FNDA:1,_ZNK5boost10test_tools9assertion11binary_exprINS1_10value_exprIRN4wren4math3MatIfLm2ELm2EEEEES8_NS1_2op2EQIS7_S7_vEEE5valueEv
FNDA:1,_ZNK5boost10test_tools9assertion11binary_exprINS1_10value_exprIRN4wren4math3VecIfLm2EEEEERNS5_5Vec2fENS1_2op2EQIS7_SA_vEEE5valueEv
FNDA:4,_ZNK5boost10test_tools9assertion11binary_exprINS1_10value_exprIRN4wren4math5Vec2fEEERKS6_NS1_2op2EQIS6_S6_vEEE5valueEv
FNDA:3,_ZNK5boost10test_tools9assertion11binary_exprINS1_10value_exprIRN4wren4math5Vec3fEEERKS6_NS1_2op2EQIS6_S6_vEEE5valueEv
FNDA:3,_ZNK5boost10test_tools9assertion11binary_exprINS1_10value_exprIRfEERKfNS1_2op2EQIffvEEE5valueEv
FNDA:4,_ZNK5boost10test_tools9assertion11binary_exprINS1_10value_exprIRfEEdNS1_2op2EQIfdvEEE5valueEv
FNDA:1,_ZNK5boost10test_tools9assertion11binary_exprINS1_10value_exprISt5arrayIfLm16EEEERS5_NS1_2op2EQIS5_S5_vEEE5valueEv
FNDA:0,_ZNK5boost10test_tools9assertion11binary_exprINS1_10value_exprIRKN4wren4math3MatIfLm4ELm4EEEEERNS5_5Mat4fENS1_2op2EQIS7_SB_vEEE6reportERSo
FNDA:0,_ZNK5boost10test_tools9assertion11binary_exprINS1_10value_exprIRKN4wren4math5Mat4fEEES8_NS1_2op2EQIS6_S6_vEEE6reportERSo
FNDA:0,_ZNK5boost10test_tools9assertion11binary_exprINS1_10value_exprIRN4wren4math3MatIfLm2ELm2EEEEES8_NS1_2op2EQIS7_S7_vEEE6reportERSo
FNDA:0,_ZNK5boost10test_tools9assertion11binary_exprINS1_10value_exprIRN4wren4math3VecIfLm2EEEEERNS5_5Vec2fENS1_2op2EQIS7_SA_vEEE6reportERSo
FNDA:0,_ZNK5boost10test_tools9assertion11binary_exprINS1_10value_exprIRN4wren4math5Vec2fEEERKS6_NS1_2op2EQIS6_S6_vEEE6reportERSo
FNDA:0,_ZNK5boost10test_tools9assertion11binary_exprINS1_10value_exprIRN4wren4math5Vec3fEEERKS6_NS1_2op2EQIS6_S6_vEEE6reportERSo
FNDA:0,_ZNK5boost10test_tools9assertion11binary_exprINS1_10value_exprIRfEERKfNS1_2op2EQIffvEEE6reportERSo
FNDA:0,_ZNK5boost10test_tools9assertion11binary_exprINS1_10value_exprIRfEEdNS1_2op2EQIfdvEEE6reportERSo
FNDA:0,_ZNK5boost10test_tools9assertion11binary_exprINS1_10value_exprISt5arrayIfLm16EEEERS5_NS1_2op2EQIS5_S5_vEEE6reportERSo
FNDA:2,_ZNK5boost10test_tools9assertion11binary_exprINS1_10value_exprIRKN4wren4math3MatIfLm4ELm4EEEEERNS5_5Mat4fENS1_2op2EQIS7_SB_vEEE8evaluateEb
FNDA:2,_ZNK5boost10test_tools9assertion11binary_exprINS1_10value_exprIRKN4wren4math5Mat4fEEES8_NS1_2op2EQIS6_S6_vEEE8evaluateEb
FNDA:1,_ZNK5boost10test_tools9assertion11binary_exprINS1_10value_exprIRN4wren4math3MatIfLm2ELm2EEEEES8_NS1_2op2EQIS7_S7_vEEE8evaluateEb
FNDA:1,_ZNK5boost10test_tools9assertion11binary_exprINS1_10value_exprIRN4wren4math3VecIfLm2EEEEERNS5_5Vec2fENS1_2op2EQIS7_SA_vEEE8evaluateEb
FNDA:4,_ZNK5boost10test_tools9assertion11binary_exprINS1_10value_exprIRN4wren4math5Vec2fEEERKS6_NS1_2op2EQIS6_S6_vEEE8evaluateEb
FNDA:3,_ZNK5boost10test_tools9assertion11binary_exprINS1_10value_exprIRN4wren4math5Vec3fEEERKS6_NS1_2op2EQIS6_S6_vEEE8evaluateEb
FNDA:3,_ZNK5boost10test_tools9assertion11binary_exprINS1_10value_exprIRfEERKfNS1_2op2EQIffvEEE8evaluateEb
FNDA:4,_ZNK5boost10test_tools9assertion11binary_exprINS1_10value_exprIRfEEdNS1_2op2EQIfdvEEE8evaluateEb
FNDA:1,_ZNK5boost10test_tools9assertion11binary_exprINS1_10value_exprISt5arrayIfLm16EEEERS5_NS1_2op2EQIS5_S5_vEEE8evaluateEb
FNDA:2,_ZNK5boost10test_tools9assertion4seedpmIRKN4wren4math3MatIfLm4ELm4EEEEENS1_10value_exprIT_EEOSB_
FNDA:2,_ZNK5boost10test_tools9assertion4seedpmIRKN4wren4math5Mat4fEEENS1_10value_exprIT_EEOSA_
FNDA:1,_ZNK5boost10test_tools9assertion4seedpmIRN4wren4math3MatIfLm2ELm2EEEEENS1_10value_exprIT_EEOSA_
FNDA:1,_ZNK5boost10test_tools9assertion4seedpmIRN4wren4math3VecIfLm2EEEEENS1_10value_exprIT_EEOSA_
FNDA:4,_ZNK5boost10test_tools9assertion4seedpmIRN4wren4math5Vec2fEEENS1_10value_exprIT_EEOS9_
FNDA:3,_ZNK5boost10test_tools9assertion4seedpmIRN4wren4math5Vec3fEEENS1_10value_exprIT_EEOS9_
FNDA:7,_ZNK5boost10test_tools9assertion4seedpmIRfEENS1_10value_exprIT_EEOS6_
FNDA:1,_ZNK5boost10test_tools9assertion4seedpmISt5arrayIfLm16EEEENS1_10value_exprIT_EEOS7_
FNF:102
FNH:74
DA:174,13
DA:227,21
DA:272,21
DA:273,21
DA:274,21
DA:275,21
DA:276,21
DA:277,21
DA:285,21
DA:287,21
DA:289,0
DA:291,0
DA:292,0
DA:351,21
DA:352,21
DA:353,21
DA:354,21
DA:363,21
DA:365,21
DA:367,0
DA:369,0
DA:372,21
DA:374,21
DA:375,21
DA:376,21
DA:378,0
DA:379,0
DA:381,0
DA:382,21
DA:404,21
DA:406,21
LF:31
LH:23
end_of_record
TN:
SF:/home/tyler/src/wren/build/include/boost/test/tools/assertion_result.hpp
FN:39,_ZN5boost10test_tools16assertion_resultC2ERKS1_
FN:39,_ZN5boost10test_tools16assertion_resultD2Ev
FN:45,_ZN5boost10test_tools16assertion_result5dummy7nonnullEv
FN:52,_ZN5boost10test_tools16assertion_resultC2Eb
FN:60,_ZNK5boost10test_tools16assertion_resultntEv
FN:62,_ZNK5boost10test_tools16assertion_resultcvMNS1_5dummyEFvvEEv
FN:65,_ZN5boost10test_tools16assertion_result19readonly_property65C2Eb
FN:69,_ZN5boost10test_tools16assertion_result7messageEv
FN:76,76,_ZNK5boost10test_tools16assertion_result7messageEv
FNDA:21,_ZN5boost10test_tools16assertion_resultC2ERKS1_
FNDA:42,_ZN5boost10test_tools16assertion_resultD2Ev
FNDA:0,_ZN5boost10test_tools16assertion_result5dummy7nonnullEv
FNDA:21,_ZN5boost10test_tools16assertion_resultC2Eb
FNDA:3,_ZNK5boost10test_tools16assertion_resultntEv
FNDA:21,_ZNK5boost10test_tools16assertion_resultcvMNS1_5dummyEFvvEEv
FNDA:21,_ZN5boost10test_tools16assertion_result19readonly_property65C2Eb
FNDA:0,_ZN5boost10test_tools16assertion_result7messageEv
FNDA:0,_ZNK5boost10test_tools16assertion_result7messageEv
FNF:9
FNH:6
DA:45,0
DA:52,42
DA:53,21
DA:54,21
DA:60,3
DA:62,21
DA:65,21
DA:69,0
DA:71,0
DA:72,0
DA:74,0
DA:75,0
DA:76,0
LF:13
LH:6
end_of_record
TN:
SF:/home/tyler/src/wren/build/include/boost/test/tools/collection_comparison_op.hpp
FN:308,310,_ZN5boost10test_tools9assertion2op19compare_collectionsISt5arrayIfLm16EES5_ffEENS0_16assertion_resultERKT_RKT0_PNS_4typeINS2_2EQIT1_T2_vEEEEN4mpl_5bool_ILb0EEE
FN:446,446,_ZN5boost10test_tools9assertion2op2EQISt5arrayIfLm16EES5_vE4evalERKS5_S8_
FN:446,446,_ZN5boost10test_tools9assertion2op2EQISt5arrayIfLm16EES5_vE6reportINS1_10value_exprIS5_EEEEvRSoRKT_RKS5_
FNDA:1,_ZN5boost10test_tools9assertion2op19compare_collectionsISt5arrayIfLm16EES5_ffEENS0_16assertion_resultERKT_RKT0_PNS_4typeINS2_2EQIT1_T2_vEEEEN4mpl_5bool_ILb0EEE
FNDA:1,_ZN5boost10test_tools9assertion2op2EQISt5arrayIfLm16EES5_vE4evalERKS5_S8_
FNDA:0,_ZN5boost10test_tools9assertion2op2EQISt5arrayIfLm16EES5_vE6reportINS1_10value_exprIS5_EEEEvRSoRKT_RKS5_
FNF:3
FNH:2
DA:308,1
DA:310,1
DA:446,1
LF:3
LH:3
end_of_record
TN:
SF:/home/tyler/src/wren/build/include/boost/test/tools/detail/fwd.hpp
FN:45,45,_ZN5boost10test_tools9tt_detail10dummy_condEv
FNDA:21,_ZN5boost10test_tools9tt_detail10dummy_condEv
FNF:1
FNH:1
DA:45,21
LF:1
LH:1
end_of_record
TN:
SF:/home/tyler/src/wren/build/include/boost/test/tools/detail/indirections.hpp
FN:104,105,_ZN5boost10test_tools9tt_detail14assertion_typeC2ENS1_10check_typeE
FN:107,107,_ZN5boost10test_tools9tt_detail14assertion_typecvNS1_10check_typeEEv
FN:37,39,_ZN5boost10test_tools9tt_detail28assertion_evaluation_contextC2Eb
FN:49,_ZN5boost10test_tools9tt_detail20assertion_evaluate_tINS0_9assertion11binary_exprINS3_10value_exprIRfEERKfNS3_2op2EQIffvEEEEEC2ERKSE_
FN:49,_ZN5boost10test_tools9tt_detail20assertion_evaluate_tINS0_9assertion11binary_exprINS3_10value_exprIRfEERKfNS3_2op2EQIffvEEEEED2Ev
FN:53,54,_ZN5boost10test_tools9tt_detail20assertion_evaluate_tINS0_9assertion11binary_exprINS3_10value_exprIRfEERKfNS3_2op2EQIffvEEEEEC2ERKSD_
FN:56,56,_ZN5boost10test_tools9tt_detail20assertion_evaluate_tINS0_9assertion11binary_exprINS3_10value_exprIRfEERKfNS3_2op2EQIffvEEEEEcvNS0_16assertion_resultEEv
FN:59,65,_ZNK5boost10test_tools9tt_detail20assertion_evaluate_tINS0_9assertion11binary_exprINS3_10value_exprIRfEERKfNS3_2op2EQIffvEEEEE13stack_contextENS_10shared_ptrINS1_28assertion_evaluation_contextEEE
FN:76,76,_ZN5boost10test_tools9tt_detail18assertion_evaluateINS0_9assertion11binary_exprINS3_10value_exprIRfEERKfNS3_2op2EQIffvEEEEEENS1_20assertion_evaluate_tIT_EERKSF_
FN:91,95,_ZN5boost10test_tools9tt_detail14assertion_textERKNS_9unit_test12lazy_ostreamES5_
FNDA:6,_ZN5boost10test_tools9tt_detail14assertion_typeC2ENS1_10check_typeE
FNDA:3,_ZN5boost10test_tools9tt_detail14assertion_typecvNS1_10check_typeEEv
FNDA:3,_ZN5boost10test_tools9tt_detail28assertion_evaluation_contextC2Eb
FNDA:3,_ZN5boost10test_tools9tt_detail20assertion_evaluate_tINS0_9assertion11binary_exprINS3_10value_exprIRfEERKfNS3_2op2EQIffvEEEEEC2ERKSE_
FNDA:6,_ZN5boost10test_tools9tt_detail20assertion_evaluate_tINS0_9assertion11binary_exprINS3_10value_exprIRfEERKfNS3_2op2EQIffvEEEEED2Ev
FNDA:3,_ZN5boost10test_tools9tt_detail20assertion_evaluate_tINS0_9assertion11binary_exprINS3_10value_exprIRfEERKfNS3_2op2EQIffvEEEEEC2ERKSD_
FNDA:3,_ZN5boost10test_tools9tt_detail20assertion_evaluate_tINS0_9assertion11binary_exprINS3_10value_exprIRfEERKfNS3_2op2EQIffvEEEEEcvNS0_16assertion_resultEEv
FNDA:3,_ZNK5boost10test_tools9tt_detail20assertion_evaluate_tINS0_9assertion11binary_exprINS3_10value_exprIRfEERKfNS3_2op2EQIffvEEEEE13stack_contextENS_10shared_ptrINS1_28assertion_evaluation_contextEEE
FNDA:3,_ZN5boost10test_tools9tt_detail18assertion_evaluateINS0_9assertion11binary_exprINS3_10value_exprIRfEERKfNS3_2op2EQIffvEEEEEENS1_20assertion_evaluate_tIT_EERKSF_
FNDA:3,_ZN5boost10test_tools9tt_detail14assertion_textERKNS_9unit_test12lazy_ostreamES5_
FNF:10
FNH:10
DA:37,3
DA:38,3
DA:39,3
DA:53,3
DA:54,3
DA:56,3
DA:59,3
DA:60,3
DA:62,3
DA:63,3
DA:64,3
DA:65,3
DA:76,3
DA:91,3
DA:92,3
DA:93,0
DA:94,3
DA:95,3
DA:104,6
DA:105,6
DA:107,3
LF:21
LH:20
end_of_record
TN:
SF:/home/tyler/src/wren/build/include/boost/test/tools/detail/print_helper.hpp
FN:195,195,_ZN5boost10test_tools9tt_detail14print_helper_tIN4wren4math3MatIfLm2ELm2EEEEC2ERKS6_
FN:195,195,_ZN5boost10test_tools9tt_detail14print_helper_tIN4wren4math3MatIfLm4ELm4EEEEC2ERKS6_
FN:195,195,_ZN5boost10test_tools9tt_detail14print_helper_tIN4wren4math3VecIfLm2EEEEC2ERKS6_
FN:195,195,_ZN5boost10test_tools9tt_detail14print_helper_tIN4wren4math5Mat4fEEC2ERKS5_
FN:195,195,_ZN5boost10test_tools9tt_detail14print_helper_tIN4wren4math5Vec2fEEC2ERKS5_
FN:195,195,_ZN5boost10test_tools9tt_detail14print_helper_tIN4wren4math5Vec3fEEC2ERKS5_
FN:195,195,_ZN5boost10test_tools9tt_detail14print_helper_tINS_9unit_test13basic_cstringIKcEEEC2ERKS6_
FN:195,195,_ZN5boost10test_tools9tt_detail14print_helper_tIdEC2ERKd
FN:195,195,_ZN5boost10test_tools9tt_detail14print_helper_tIfEC2ERKf
FN:216,218,_ZN5boost10test_tools9tt_detail12print_helperIN4wren4math3MatIfLm2ELm2EEEEENS1_14print_helper_tIT_EERKS8_
FN:216,218,_ZN5boost10test_tools9tt_detail12print_helperIN4wren4math3MatIfLm4ELm4EEEEENS1_14print_helper_tIT_EERKS8_
FN:216,218,_ZN5boost10test_tools9tt_detail12print_helperIN4wren4math3VecIfLm2EEEEENS1_14print_helper_tIT_EERKS8_
FN:216,218,_ZN5boost10test_tools9tt_detail12print_helperIN4wren4math5Mat4fEEENS1_14print_helper_tIT_EERKS7_
FN:216,218,_ZN5boost10test_tools9tt_detail12print_helperIN4wren4math5Vec2fEEENS1_14print_helper_tIT_EERKS7_
FN:216,218,_ZN5boost10test_tools9tt_detail12print_helperIN4wren4math5Vec3fEEENS1_14print_helper_tIT_EERKS7_
FN:216,218,_ZN5boost10test_tools9tt_detail12print_helperINS_9unit_test13basic_cstringIKcEEEENS1_14print_helper_tIT_EERKS8_
FN:216,218,_ZN5boost10test_tools9tt_detail12print_helperIdEENS1_14print_helper_tIT_EERKS4_
FN:216,218,_ZN5boost10test_tools9tt_detail12print_helperIfEENS1_14print_helper_tIT_EERKS4_
FN:225,229,_ZN5boost10test_tools9tt_detaillsIN4wren4math3MatIfLm2ELm2EEEEERSoS7_RKNS1_14print_helper_tIT_EE
FN:225,229,_ZN5boost10test_tools9tt_detaillsIN4wren4math3MatIfLm4ELm4EEEEERSoS7_RKNS1_14print_helper_tIT_EE
FN:225,229,_ZN5boost10test_tools9tt_detaillsIN4wren4math3VecIfLm2EEEEERSoS7_RKNS1_14print_helper_tIT_EE
FN:225,229,_ZN5boost10test_tools9tt_detaillsIN4wren4math5Mat4fEEERSoS6_RKNS1_14print_helper_tIT_EE
FN:225,229,_ZN5boost10test_tools9tt_detaillsIN4wren4math5Vec2fEEERSoS6_RKNS1_14print_helper_tIT_EE
FN:225,229,_ZN5boost10test_tools9tt_detaillsIN4wren4math5Vec3fEEERSoS6_RKNS1_14print_helper_tIT_EE
FN:225,229,_ZN5boost10test_tools9tt_detaillsINS_9unit_test13basic_cstringIKcEEEERSoS7_RKNS1_14print_helper_tIT_EE
FN:225,229,_ZN5boost10test_tools9tt_detaillsIdEERSoS3_RKNS1_14print_helper_tIT_EE
FN:225,229,_ZN5boost10test_tools9tt_detaillsIfEERSoS3_RKNS1_14print_helper_tIT_EE
FN:52,56,_ZN5boost10test_tools9tt_detail4impl21boost_test_print_typeIN4wren4math3MatIfLm2ELm2EEEEERSoS8_RKT_
FN:52,56,_ZN5boost10test_tools9tt_detail4impl21boost_test_print_typeIN4wren4math3MatIfLm4ELm4EEEEERSoS8_RKT_
FN:52,56,_ZN5boost10test_tools9tt_detail4impl21boost_test_print_typeIN4wren4math3VecIfLm2EEEEERSoS8_RKT_
FN:52,56,_ZN5boost10test_tools9tt_detail4impl21boost_test_print_typeIN4wren4math5Mat4fEEERSoS7_RKT_
FN:52,56,_ZN5boost10test_tools9tt_detail4impl21boost_test_print_typeIN4wren4math5Vec2fEEERSoS7_RKT_
FN:52,56,_ZN5boost10test_tools9tt_detail4impl21boost_test_print_typeIN4wren4math5Vec3fEEERSoS7_RKT_
FN:52,56,_ZN5boost10test_tools9tt_detail4impl21boost_test_print_typeINS_9unit_test13basic_cstringIKcEEEERSoS8_RKT_
FN:52,56,_ZN5boost10test_tools9tt_detail4impl21boost_test_print_typeIdEERSoS4_RKT_
FN:52,56,_ZN5boost10test_tools9tt_detail4impl21boost_test_print_typeIfEERSoS4_RKT_
FN:61,62,_ZNK5boost10test_tools9tt_detail4impl26boost_test_print_type_implclIN4wren4math3MatIfLm2ELm2EEEEERSoS9_RKT_
FN:61,62,_ZNK5boost10test_tools9tt_detail4impl26boost_test_print_type_implclIN4wren4math3MatIfLm4ELm4EEEEERSoS9_RKT_
FN:61,62,_ZNK5boost10test_tools9tt_detail4impl26boost_test_print_type_implclIN4wren4math3VecIfLm2EEEEERSoS9_RKT_
FN:61,62,_ZNK5boost10test_tools9tt_detail4impl26boost_test_print_type_implclIN4wren4math5Mat4fEEERSoS8_RKT_
FN:61,62,_ZNK5boost10test_tools9tt_detail4impl26boost_test_print_type_implclIN4wren4math5Vec2fEEERSoS8_RKT_
FN:61,62,_ZNK5boost10test_tools9tt_detail4impl26boost_test_print_type_implclIN4wren4math5Vec3fEEERSoS8_RKT_
FN:61,62,_ZNK5boost10test_tools9tt_detail4impl26boost_test_print_type_implclINS_9unit_test13basic_cstringIKcEEEERSoS9_RKT_
FN:61,62,_ZNK5boost10test_tools9tt_detail4impl26boost_test_print_type_implclIdEERSoS5_RKT_
FN:61,62,_ZNK5boost10test_tools9tt_detail4impl26boost_test_print_type_implclIfEERSoS5_RKT_
FN:83,95,_ZN5boost10test_tools9tt_detail15print_log_valueIN4wren4math3MatIfLm2ELm2EEEEclERSoRKS6_
FN:83,95,_ZN5boost10test_tools9tt_detail15print_log_valueIN4wren4math3MatIfLm4ELm4EEEEclERSoRKS6_
FN:83,95,_ZN5boost10test_tools9tt_detail15print_log_valueIN4wren4math3VecIfLm2EEEEclERSoRKS6_
FN:83,95,_ZN5boost10test_tools9tt_detail15print_log_valueIN4wren4math5Mat4fEEclERSoRKS5_
FN:83,95,_ZN5boost10test_tools9tt_detail15print_log_valueIN4wren4math5Vec2fEEclERSoRKS5_
FN:83,95,_ZN5boost10test_tools9tt_detail15print_log_valueIN4wren4math5Vec3fEEclERSoRKS5_
FN:83,95,_ZN5boost10test_tools9tt_detail15print_log_valueINS_9unit_test13basic_cstringIKcEEEclERSoRKS6_
FN:83,95,_ZN5boost10test_tools9tt_detail15print_log_valueIdEclERSoRKd
FN:83,95,_ZN5boost10test_tools9tt_detail15print_log_valueIfEclERSoRKf
FN:97,115,_ZN5boost10test_tools9tt_detail15print_log_valueIN4wren4math3MatIfLm2ELm2EEEE13set_precisionERSoN4mpl_5bool_ILb0EEE
FN:97,115,_ZN5boost10test_tools9tt_detail15print_log_valueIN4wren4math3MatIfLm4ELm4EEEE13set_precisionERSoN4mpl_5bool_ILb0EEE
FN:97,115,_ZN5boost10test_tools9tt_detail15print_log_valueIN4wren4math3VecIfLm2EEEE13set_precisionERSoN4mpl_5bool_ILb0EEE
FN:97,115,_ZN5boost10test_tools9tt_detail15print_log_valueIN4wren4math5Mat4fEE13set_precisionERSoN4mpl_5bool_ILb0EEE
FN:97,115,_ZN5boost10test_tools9tt_detail15print_log_valueIN4wren4math5Vec2fEE13set_precisionERSoN4mpl_5bool_ILb0EEE
FN:97,115,_ZN5boost10test_tools9tt_detail15print_log_valueIN4wren4math5Vec3fEE13set_precisionERSoN4mpl_5bool_ILb0EEE
FN:97,115,_ZN5boost10test_tools9tt_detail15print_log_valueINS_9unit_test13basic_cstringIKcEEE13set_precisionERSoN4mpl_5bool_ILb0EEE
FN:97,115,_ZN5boost10test_tools9tt_detail15print_log_valueIdE13set_precisionERSoN4mpl_5bool_ILb0EEE
FN:97,115,_ZN5boost10test_tools9tt_detail15print_log_valueIfE13set_precisionERSoN4mpl_5bool_ILb0EEE
FNDA:0,_ZN5boost10test_tools9tt_detail14print_helper_tIN4wren4math3MatIfLm2ELm2EEEEC2ERKS6_
FNDA:0,_ZN5boost10test_tools9tt_detail14print_helper_tIN4wren4math3MatIfLm4ELm4EEEEC2ERKS6_
FNDA:0,_ZN5boost10test_tools9tt_detail14print_helper_tIN4wren4math3VecIfLm2EEEEC2ERKS6_
FNDA:0,_ZN5boost10test_tools9tt_detail14print_helper_tIN4wren4math5Mat4fEEC2ERKS5_
FNDA:0,_ZN5boost10test_tools9tt_detail14print_helper_tIN4wren4math5Vec2fEEC2ERKS5_
FNDA:0,_ZN5boost10test_tools9tt_detail14print_helper_tIN4wren4math5Vec3fEEC2ERKS5_
FNDA:0,_ZN5boost10test_tools9tt_detail14print_helper_tINS_9unit_test13basic_cstringIKcEEEC2ERKS6_
FNDA:0,_ZN5boost10test_tools9tt_detail14print_helper_tIdEC2ERKd
FNDA:0,_ZN5boost10test_tools9tt_detail14print_helper_tIfEC2ERKf
FNDA:0,_ZN5boost10test_tools9tt_detail12print_helperIN4wren4math3MatIfLm2ELm2EEEEENS1_14print_helper_tIT_EERKS8_
FNDA:0,_ZN5boost10test_tools9tt_detail12print_helperIN4wren4math3MatIfLm4ELm4EEEEENS1_14print_helper_tIT_EERKS8_
FNDA:0,_ZN5boost10test_tools9tt_detail12print_helperIN4wren4math3VecIfLm2EEEEENS1_14print_helper_tIT_EERKS8_
FNDA:0,_ZN5boost10test_tools9tt_detail12print_helperIN4wren4math5Mat4fEEENS1_14print_helper_tIT_EERKS7_
FNDA:0,_ZN5boost10test_tools9tt_detail12print_helperIN4wren4math5Vec2fEEENS1_14print_helper_tIT_EERKS7_
FNDA:0,_ZN5boost10test_tools9tt_detail12print_helperIN4wren4math5Vec3fEEENS1_14print_helper_tIT_EERKS7_
FNDA:0,_ZN5boost10test_tools9tt_detail12print_helperINS_9unit_test13basic_cstringIKcEEEENS1_14print_helper_tIT_EERKS8_
FNDA:0,_ZN5boost10test_tools9tt_detail12print_helperIdEENS1_14print_helper_tIT_EERKS4_
FNDA:0,_ZN5boost10test_tools9tt_detail12print_helperIfEENS1_14print_helper_tIT_EERKS4_
FNDA:0,_ZN5boost10test_tools9tt_detaillsIN4wren4math3MatIfLm2ELm2EEEEERSoS7_RKNS1_14print_helper_tIT_EE
FNDA:0,_ZN5boost10test_tools9tt_detaillsIN4wren4math3MatIfLm4ELm4EEEEERSoS7_RKNS1_14print_helper_tIT_EE
FNDA:0,_ZN5boost10test_tools9tt_detaillsIN4wren4math3VecIfLm2EEEEERSoS7_RKNS1_14print_helper_tIT_EE
FNDA:0,_ZN5boost10test_tools9tt_detaillsIN4wren4math5Mat4fEEERSoS6_RKNS1_14print_helper_tIT_EE
FNDA:0,_ZN5boost10test_tools9tt_detaillsIN4wren4math5Vec2fEEERSoS6_RKNS1_14print_helper_tIT_EE
FNDA:0,_ZN5boost10test_tools9tt_detaillsIN4wren4math5Vec3fEEERSoS6_RKNS1_14print_helper_tIT_EE
FNDA:0,_ZN5boost10test_tools9tt_detaillsINS_9unit_test13basic_cstringIKcEEEERSoS7_RKNS1_14print_helper_tIT_EE
FNDA:0,_ZN5boost10test_tools9tt_detaillsIdEERSoS3_RKNS1_14print_helper_tIT_EE
FNDA:0,_ZN5boost10test_tools9tt_detaillsIfEERSoS3_RKNS1_14print_helper_tIT_EE
FNDA:0,_ZN5boost10test_tools9tt_detail4impl21boost_test_print_typeIN4wren4math3MatIfLm2ELm2EEEEERSoS8_RKT_
FNDA:0,_ZN5boost10test_tools9tt_detail4impl21boost_test_print_typeIN4wren4math3MatIfLm4ELm4EEEEERSoS8_RKT_
FNDA:0,_ZN5boost10test_tools9tt_detail4impl21boost_test_print_typeIN4wren4math3VecIfLm2EEEEERSoS8_RKT_
FNDA:0,_ZN5boost10test_tools9tt_detail4impl21boost_test_print_typeIN4wren4math5Mat4fEEERSoS7_RKT_
FNDA:0,_ZN5boost10test_tools9tt_detail4impl21boost_test_print_typeIN4wren4math5Vec2fEEERSoS7_RKT_
FNDA:0,_ZN5boost10test_tools9tt_detail4impl21boost_test_print_typeIN4wren4math5Vec3fEEERSoS7_RKT_
FNDA:0,_ZN5boost10test_tools9tt_detail4impl21boost_test_print_typeINS_9unit_test13basic_cstringIKcEEEERSoS8_RKT_
FNDA:0,_ZN5boost10test_tools9tt_detail4impl21boost_test_print_typeIdEERSoS4_RKT_
FNDA:0,_ZN5boost10test_tools9tt_detail4impl21boost_test_print_typeIfEERSoS4_RKT_
FNDA:0,_ZNK5boost10test_tools9tt_detail4impl26boost_test_print_type_implclIN4wren4math3MatIfLm2ELm2EEEEERSoS9_RKT_
FNDA:0,_ZNK5boost10test_tools9tt_detail4impl26boost_test_print_type_implclIN4wren4math3MatIfLm4ELm4EEEEERSoS9_RKT_
FNDA:0,_ZNK5boost10test_tools9tt_detail4impl26boost_test_print_type_implclIN4wren4math3VecIfLm2EEEEERSoS9_RKT_
FNDA:0,_ZNK5boost10test_tools9tt_detail4impl26boost_test_print_type_implclIN4wren4math5Mat4fEEERSoS8_RKT_
FNDA:0,_ZNK5boost10test_tools9tt_detail4impl26boost_test_print_type_implclIN4wren4math5Vec2fEEERSoS8_RKT_
FNDA:0,_ZNK5boost10test_tools9tt_detail4impl26boost_test_print_type_implclIN4wren4math5Vec3fEEERSoS8_RKT_
FNDA:0,_ZNK5boost10test_tools9tt_detail4impl26boost_test_print_type_implclINS_9unit_test13basic_cstringIKcEEEERSoS9_RKT_
FNDA:0,_ZNK5boost10test_tools9tt_detail4impl26boost_test_print_type_implclIdEERSoS5_RKT_
FNDA:0,_ZNK5boost10test_tools9tt_detail4impl26boost_test_print_type_implclIfEERSoS5_RKT_
FNDA:0,_ZN5boost10test_tools9tt_detail15print_log_valueIN4wren4math3MatIfLm2ELm2EEEEclERSoRKS6_
FNDA:0,_ZN5boost10test_tools9tt_detail15print_log_valueIN4wren4math3MatIfLm4ELm4EEEEclERSoRKS6_
FNDA:0,_ZN5boost10test_tools9tt_detail15print_log_valueIN4wren4math3VecIfLm2EEEEclERSoRKS6_
FNDA:0,_ZN5boost10test_tools9tt_detail15print_log_valueIN4wren4math5Mat4fEEclERSoRKS5_
FNDA:0,_ZN5boost10test_tools9tt_detail15print_log_valueIN4wren4math5Vec2fEEclERSoRKS5_
FNDA:0,_ZN5boost10test_tools9tt_detail15print_log_valueIN4wren4math5Vec3fEEclERSoRKS5_
FNDA:0,_ZN5boost10test_tools9tt_detail15print_log_valueINS_9unit_test13basic_cstringIKcEEEclERSoRKS6_
FNDA:0,_ZN5boost10test_tools9tt_detail15print_log_valueIdEclERSoRKd
FNDA:0,_ZN5boost10test_tools9tt_detail15print_log_valueIfEclERSoRKf
FNDA:0,_ZN5boost10test_tools9tt_detail15print_log_valueIN4wren4math3MatIfLm2ELm2EEEE13set_precisionERSoN4mpl_5bool_ILb0EEE
FNDA:0,_ZN5boost10test_tools9tt_detail15print_log_valueIN4wren4math3MatIfLm4ELm4EEEE13set_precisionERSoN4mpl_5bool_ILb0EEE
FNDA:0,_ZN5boost10test_tools9tt_detail15print_log_valueIN4wren4math3VecIfLm2EEEE13set_precisionERSoN4mpl_5bool_ILb0EEE
FNDA:0,_ZN5boost10test_tools9tt_detail15print_log_valueIN4wren4math5Mat4fEE13set_precisionERSoN4mpl_5bool_ILb0EEE
FNDA:0,_ZN5boost10test_tools9tt_detail15print_log_valueIN4wren4math5Vec2fEE13set_precisionERSoN4mpl_5bool_ILb0EEE
FNDA:0,_ZN5boost10test_tools9tt_detail15print_log_valueIN4wren4math5Vec3fEE13set_precisionERSoN4mpl_5bool_ILb0EEE
FNDA:0,_ZN5boost10test_tools9tt_detail15print_log_valueINS_9unit_test13basic_cstringIKcEEE13set_precisionERSoN4mpl_5bool_ILb0EEE
FNDA:0,_ZN5boost10test_tools9tt_detail15print_log_valueIdE13set_precisionERSoN4mpl_5bool_ILb0EEE
FNDA:0,_ZN5boost10test_tools9tt_detail15print_log_valueIfE13set_precisionERSoN4mpl_5bool_ILb0EEE
FNF:63
FNH:0
DA:52,0
DA:55,0
DA:56,0
DA:61,0
DA:62,0
DA:83,0
DA:87,0
DA:91,0
DA:93,0
DA:94,0
DA:95,0
DA:97,0
DA:100,0
DA:115,0
DA:195,0
DA:216,0
DA:218,0
DA:225,0
DA:227,0
DA:229,0
LF:20
LH:0
end_of_record
TN:
SF:/home/tyler/src/wren/build/include/boost/test/tools/detail/tolerance_manip.hpp
FN:101,102,_ZN5boost10test_tools9tt_detaillsIfEENS1_14assertion_typeERKS3_RKNS1_15tolerance_manipIT_EE
FN:117,122,_ZN5boost10test_tools9toleranceIfEENS0_9tt_detail15tolerance_manipIT_EES4_
FN:44,44,_ZN5boost10test_tools9tt_detail15tolerance_manipIfEC2ERKf
FN:64,_ZN5boost10test_tools9tt_detail28tolerance_evaluation_contextIfED2Ev
FN:65,68,_ZN5boost10test_tools9tt_detail28tolerance_evaluation_contextIfEC2Ef
FN:77,83,_ZN5boost10test_tools9tt_detaillsINS0_9assertion11binary_exprINS3_10value_exprIRfEERKfNS3_2op2EQIffvEEEEfEENS1_20assertion_evaluate_tIT_EERKSG_RKNS1_15tolerance_manipIT0_EE
FN:89,89,_ZN5boost10test_tools9tt_detaillsIfEERNS_9unit_test12lazy_ostreamES5_RKNS1_15tolerance_manipIT_EE
FNDA:3,_ZN5boost10test_tools9tt_detaillsIfEENS1_14assertion_typeERKS3_RKNS1_15tolerance_manipIT_EE
FNDA:9,_ZN5boost10test_tools9toleranceIfEENS0_9tt_detail15tolerance_manipIT_EES4_
FNDA:9,_ZN5boost10test_tools9tt_detail15tolerance_manipIfEC2ERKf
FNDA:3,_ZN5boost10test_tools9tt_detail28tolerance_evaluation_contextIfED2Ev
FNDA:3,_ZN5boost10test_tools9tt_detail28tolerance_evaluation_contextIfEC2Ef
FNDA:3,_ZN5boost10test_tools9tt_detaillsINS0_9assertion11binary_exprINS3_10value_exprIRfEERKfNS3_2op2EQIffvEEEEfEENS1_20assertion_evaluate_tIT_EERKSG_RKNS1_15tolerance_manipIT0_EE
FNDA:3,_ZN5boost10test_tools9tt_detaillsIfEERNS_9unit_test12lazy_ostreamES5_RKNS1_15tolerance_manipIT_EE
FNF:7
FNH:7
DA:44,9
DA:65,3
DA:66,3
DA:67,3
DA:68,3
DA:77,3
DA:79,3
DA:80,3
DA:81,3
DA:83,0
DA:89,3
DA:101,3
DA:102,3
DA:117,9
DA:122,9
LF:15
LH:14
end_of_record
TN:
SF:/home/tyler/src/wren/build/include/boost/test/tools/floating_point_comparison.hpp
FN:142,144,_ZN5boost4math3fpc10fpc_detail7fpt_absIdEET_S4_
FN:142,144,_ZN5boost4math3fpc10fpc_detail7fpt_absIfEET_S4_
FN:152,152,_ZN5boost4math3fpc10fpc_detail22fpt_specialized_limitsIdE9min_valueEv
FN:152,152,_ZN5boost4math3fpc10fpc_detail22fpt_specialized_limitsIfE9min_valueEv
FN:153,153,_ZN5boost4math3fpc10fpc_detail22fpt_specialized_limitsIdE9max_valueEv
FN:153,153,_ZN5boost4math3fpc10fpc_detail22fpt_specialized_limitsIfE9max_valueEv
FN:175,187,_ZN5boost4math3fpc10fpc_detail17safe_fpt_divisionIdEET_S4_S4_
FN:175,187,_ZN5boost4math3fpc10fpc_detail17safe_fpt_divisionIfEET_S4_S4_
FN:193,195,_ZN5boost4math3fpc10fpc_detail18fraction_toleranceIddEET_T0_
FN:193,195,_ZN5boost4math3fpc10fpc_detail18fraction_toleranceIffEET_T0_
FN:233,239,_ZN5boost4math3fpc18close_at_toleranceIdEC2IdEET_NS1_8strengthE
FN:233,239,_ZN5boost4math3fpc18close_at_toleranceIfEC2IfEET_NS1_8strengthE
FN:243,243,_ZNK5boost4math3fpc18close_at_toleranceIdE18fraction_toleranceEv
FN:243,243,_ZNK5boost4math3fpc18close_at_toleranceIfE18fraction_toleranceEv
FN:249,249,_ZNK5boost4math3fpc18close_at_toleranceIdE15tested_rel_diffEv
FN:249,249,_ZNK5boost4math3fpc18close_at_toleranceIfE15tested_rel_diffEv
FN:262,273,_ZNK5boost4math3fpc18close_at_toleranceIdEclEdd
FN:262,273,_ZNK5boost4math3fpc18close_at_toleranceIfEclEff
FN:300,304,_ZN5boost4math3fpc20small_with_toleranceIdEC2Ed
FN:300,304,_ZN5boost4math3fpc20small_with_toleranceIfEC2Ef
FN:307,309,_ZNK5boost4math3fpc20small_with_toleranceIdEclEd
FN:307,309,_ZNK5boost4math3fpc20small_with_toleranceIfEclEf
FNDA:0,_ZN5boost4math3fpc10fpc_detail7fpt_absIdEET_S4_
FNDA:15,_ZN5boost4math3fpc10fpc_detail7fpt_absIfEET_S4_
FNDA:0,_ZN5boost4math3fpc10fpc_detail22fpt_specialized_limitsIdE9min_valueEv
FNDA:6,_ZN5boost4math3fpc10fpc_detail22fpt_specialized_limitsIfE9min_valueEv
FNDA:0,_ZN5boost4math3fpc10fpc_detail22fpt_specialized_limitsIdE9max_valueEv
FNDA:3,_ZN5boost4math3fpc10fpc_detail22fpt_specialized_limitsIfE9max_valueEv
FNDA:0,_ZN5boost4math3fpc10fpc_detail17safe_fpt_divisionIdEET_S4_S4_
FNDA:6,_ZN5boost4math3fpc10fpc_detail17safe_fpt_divisionIfEET_S4_S4_
FNDA:0,_ZN5boost4math3fpc10fpc_detail18fraction_toleranceIddEET_T0_
FNDA:3,_ZN5boost4math3fpc10fpc_detail18fraction_toleranceIffEET_T0_
FNDA:0,_ZN5boost4math3fpc18close_at_toleranceIdEC2IdEET_NS1_8strengthE
FNDA:3,_ZN5boost4math3fpc18close_at_toleranceIfEC2IfEET_NS1_8strengthE
FNDA:0,_ZNK5boost4math3fpc18close_at_toleranceIdE18fraction_toleranceEv
FNDA:0,_ZNK5boost4math3fpc18close_at_toleranceIfE18fraction_toleranceEv
FNDA:0,_ZNK5boost4math3fpc18close_at_toleranceIdE15tested_rel_diffEv
FNDA:0,_ZNK5boost4math3fpc18close_at_toleranceIfE15tested_rel_diffEv
FNDA:0,_ZNK5boost4math3fpc18close_at_toleranceIdEclEdd
FNDA:3,_ZNK5boost4math3fpc18close_at_toleranceIfEclEff
FNDA:0,_ZN5boost4math3fpc20small_with_toleranceIdEC2Ed
FNDA:0,_ZN5boost4math3fpc20small_with_toleranceIfEC2Ef
FNDA:0,_ZNK5boost4math3fpc20small_with_toleranceIdEclEd
FNDA:0,_ZNK5boost4math3fpc20small_with_toleranceIfEclEf
FNF:22
FNH:7
DA:142,15
DA:144,15
DA:152,6
DA:153,3
DA:175,6
DA:178,6
DA:179,0
DA:182,6
DA:183,6
DA:184,0
DA:186,6
DA:187,6
DA:193,3
DA:195,3
DA:233,3
DA:234,3
DA:235,3
DA:236,3
DA:238,6
DA:239,3
DA:243,0
DA:249,0
DA:262,3
DA:264,3
DA:265,3
DA:266,3
DA:268,3
DA:269,3
DA:271,3
DA:273,3
DA:300,0
DA:301,0
DA:303,0
DA:304,0
DA:307,0
DA:309,0
LF:36
LH:26
end_of_record
TN:
SF:/home/tyler/src/wren/build/include/boost/test/tools/fpc_op.hpp
FN:102,111,_ZN5boost10test_tools9assertion2op21compare_fpv_near_zeroIdfdEENS0_16assertion_resultERKT_PNS2_2EQIT0_T1_vEE
FN:102,111,_ZN5boost10test_tools9assertion2op21compare_fpv_near_zeroIfffEENS0_16assertion_resultERKT_PNS2_2EQIT0_T1_vEE
FN:131,148,_ZN5boost10test_tools9assertion2op11compare_fpvIdfdEENS0_16assertion_resultERKT0_RKT1_PNS2_2EQIS5_S8_vEE
FN:131,148,_ZN5boost10test_tools9assertion2op11compare_fpvIfffEENS0_16assertion_resultERKT0_RKT1_PNS2_2EQIS5_S8_vEE
FN:232,232,_ZN5boost10test_tools9assertion2op2EQIfdvE11eval_directERKfRKd
FN:232,232,_ZN5boost10test_tools9assertion2op2EQIfdvE4evalERKfRKd
FN:232,232,_ZN5boost10test_tools9assertion2op2EQIfdvE6reportINS1_10value_exprIRfEEEEvRSoRKT_RKd
FN:232,232,_ZN5boost10test_tools9assertion2op2EQIfdvE6revertEv
FN:232,232,_ZN5boost10test_tools9assertion2op2EQIffvE11eval_directERKfS6_
FN:232,232,_ZN5boost10test_tools9assertion2op2EQIffvE4evalERKfS6_
FN:232,232,_ZN5boost10test_tools9assertion2op2EQIffvE6reportINS1_10value_exprIRfEEEEvRSoRKT_RKf
FN:232,232,_ZN5boost10test_tools9assertion2op2EQIffvE6revertEv
FNDA:0,_ZN5boost10test_tools9assertion2op21compare_fpv_near_zeroIdfdEENS0_16assertion_resultERKT_PNS2_2EQIT0_T1_vEE
FNDA:0,_ZN5boost10test_tools9assertion2op21compare_fpv_near_zeroIfffEENS0_16assertion_resultERKT_PNS2_2EQIT0_T1_vEE
FNDA:0,_ZN5boost10test_tools9assertion2op11compare_fpvIdfdEENS0_16assertion_resultERKT0_RKT1_PNS2_2EQIS5_S8_vEE
FNDA:3,_ZN5boost10test_tools9assertion2op11compare_fpvIfffEENS0_16assertion_resultERKT0_RKT1_PNS2_2EQIS5_S8_vEE
FNDA:4,_ZN5boost10test_tools9assertion2op2EQIfdvE11eval_directERKfRKd
FNDA:4,_ZN5boost10test_tools9assertion2op2EQIfdvE4evalERKfRKd
FNDA:0,_ZN5boost10test_tools9assertion2op2EQIfdvE6reportINS1_10value_exprIRfEEEEvRSoRKT_RKd
FNDA:0,_ZN5boost10test_tools9assertion2op2EQIfdvE6revertEv
FNDA:0,_ZN5boost10test_tools9assertion2op2EQIffvE11eval_directERKfS6_
FNDA:3,_ZN5boost10test_tools9assertion2op2EQIffvE4evalERKfS6_
FNDA:0,_ZN5boost10test_tools9assertion2op2EQIffvE6reportINS1_10value_exprIRfEEEEvRSoRKT_RKf
FNDA:0,_ZN5boost10test_tools9assertion2op2EQIffvE6revertEv
FNF:12
FNH:4
DA:102,0
DA:104,0
DA:106,0
DA:107,0
DA:108,0
DA:110,0
DA:111,0
DA:131,3
DA:133,3
DA:134,0
DA:136,3
DA:137,0
DA:140,3
DA:142,3
DA:143,3
DA:144,0
DA:145,0
DA:146,3
DA:147,3
DA:148,3
DA:232,11
LF:21
LH:10
end_of_record
TN:
SF:/home/tyler/src/wren/build/include/boost/test/tools/fpc_tolerance.hpp
FN:37,40,_ZN5boost10test_tools13fpc_toleranceIdEERT_v
FN:37,40,_ZN5boost10test_tools13fpc_toleranceIfEERT_v
FN:47,50,_ZN5boost10test_tools19local_fpc_toleranceIfEC2Ef
FN:52,56,_ZN5boost10test_tools19local_fpc_toleranceIfED2Ev
FNDA:4,_ZN5boost10test_tools13fpc_toleranceIdEERT_v
FNDA:15,_ZN5boost10test_tools13fpc_toleranceIfEERT_v
FNDA:3,_ZN5boost10test_tools19local_fpc_toleranceIfEC2Ef
FNDA:3,_ZN5boost10test_tools19local_fpc_toleranceIfED2Ev
FNF:4
FNH:4
DA:37,19
DA:40,19
DA:47,3
DA:49,3
DA:50,3
DA:52,3
DA:54,3
DA:55,3
DA:56,3
LF:9
LH:9
end_of_record
TN:
SF:/home/tyler/src/wren/build/include/boost/test/tree/fixture.hpp
FN:104,104,_ZN5boost9unit_test12impl_fixture13call_teardownILb0EEclIN6MATRIX22Multiplication_Mat_MatEEEvRT_
FN:104,104,_ZN5boost9unit_test12impl_fixture13call_teardownILb0EEclIN6MATRIX22Multiplication_Mat_VecEEEvRT_
FN:104,104,_ZN5boost9unit_test12impl_fixture13call_teardownILb0EEclIN6MATRIX8ColMajorEEEvRT_
FN:104,104,_ZN5boost9unit_test12impl_fixture13call_teardownILb0EEclIN6MATRIX8IdentityEEEvRT_
FN:104,104,_ZN5boost9unit_test12impl_fixture13call_teardownILb0EEclIN6VECTOR3DOTEEEvRT_
FN:104,104,_ZN5boost9unit_test12impl_fixture13call_teardownILb0EEclIN6VECTOR3MULEEEvRT_
FN:104,104,_ZN5boost9unit_test12impl_fixture13call_teardownILb0EEclIN6VECTOR5CROSSEEEvRT_
FN:104,104,_ZN5boost9unit_test12impl_fixture13call_teardownILb0EEclIN6VECTOR7ADD_SUBEEEvRT_
FN:104,104,_ZN5boost9unit_test12impl_fixture13call_teardownILb0EEclIN8GEOMETRY9TRANSLATEEEEvRT_
FN:112,113,_ZN5boost9unit_test17setup_conditionalIN6MATRIX22Multiplication_Mat_MatEEEvRT_
FN:112,113,_ZN5boost9unit_test17setup_conditionalIN6MATRIX22Multiplication_Mat_VecEEEvRT_
FN:112,113,_ZN5boost9unit_test17setup_conditionalIN6MATRIX8ColMajorEEEvRT_
FN:112,113,_ZN5boost9unit_test17setup_conditionalIN6MATRIX8IdentityEEEvRT_
FN:112,113,_ZN5boost9unit_test17setup_conditionalIN6VECTOR3DOTEEEvRT_
FN:112,113,_ZN5boost9unit_test17setup_conditionalIN6VECTOR3MULEEEvRT_
FN:112,113,_ZN5boost9unit_test17setup_conditionalIN6VECTOR5CROSSEEEvRT_
FN:112,113,_ZN5boost9unit_test17setup_conditionalIN6VECTOR7ADD_SUBEEEvRT_
FN:112,113,_ZN5boost9unit_test17setup_conditionalIN8GEOMETRY9TRANSLATEEEEvRT_
FN:118,119,_ZN5boost9unit_test20teardown_conditionalIN6MATRIX22Multiplication_Mat_MatEEEvRT_
FN:118,119,_ZN5boost9unit_test20teardown_conditionalIN6MATRIX22Multiplication_Mat_VecEEEvRT_
FN:118,119,_ZN5boost9unit_test20teardown_conditionalIN6MATRIX8ColMajorEEEvRT_
FN:118,119,_ZN5boost9unit_test20teardown_conditionalIN6MATRIX8IdentityEEEvRT_
FN:118,119,_ZN5boost9unit_test20teardown_conditionalIN6VECTOR3DOTEEEvRT_
FN:118,119,_ZN5boost9unit_test20teardown_conditionalIN6VECTOR3MULEEEvRT_
FN:118,119,_ZN5boost9unit_test20teardown_conditionalIN6VECTOR5CROSSEEEvRT_
FN:118,119,_ZN5boost9unit_test20teardown_conditionalIN6VECTOR7ADD_SUBEEEvRT_
FN:118,119,_ZN5boost9unit_test20teardown_conditionalIN8GEOMETRY9TRANSLATEEEEvRT_
FN:98,98,_ZN5boost9unit_test12impl_fixture10call_setupILb0EEclIN6MATRIX22Multiplication_Mat_MatEEEvRT_
FN:98,98,_ZN5boost9unit_test12impl_fixture10call_setupILb0EEclIN6MATRIX22Multiplication_Mat_VecEEEvRT_
FN:98,98,_ZN5boost9unit_test12impl_fixture10call_setupILb0EEclIN6MATRIX8ColMajorEEEvRT_
FN:98,98,_ZN5boost9unit_test12impl_fixture10call_setupILb0EEclIN6MATRIX8IdentityEEEvRT_
FN:98,98,_ZN5boost9unit_test12impl_fixture10call_setupILb0EEclIN6VECTOR3DOTEEEvRT_
FN:98,98,_ZN5boost9unit_test12impl_fixture10call_setupILb0EEclIN6VECTOR3MULEEEvRT_
FN:98,98,_ZN5boost9unit_test12impl_fixture10call_setupILb0EEclIN6VECTOR5CROSSEEEvRT_
FN:98,98,_ZN5boost9unit_test12impl_fixture10call_setupILb0EEclIN6VECTOR7ADD_SUBEEEvRT_
FN:98,98,_ZN5boost9unit_test12impl_fixture10call_setupILb0EEclIN8GEOMETRY9TRANSLATEEEEvRT_
FNDA:1,_ZN5boost9unit_test12impl_fixture13call_teardownILb0EEclIN6MATRIX22Multiplication_Mat_MatEEEvRT_
FNDA:1,_ZN5boost9unit_test12impl_fixture13call_teardownILb0EEclIN6MATRIX22Multiplication_Mat_VecEEEvRT_
FNDA:1,_ZN5boost9unit_test12impl_fixture13call_teardownILb0EEclIN6MATRIX8ColMajorEEEvRT_
FNDA:1,_ZN5boost9unit_test12impl_fixture13call_teardownILb0EEclIN6MATRIX8IdentityEEEvRT_
FNDA:1,_ZN5boost9unit_test12impl_fixture13call_teardownILb0EEclIN6VECTOR3DOTEEEvRT_
FNDA:1,_ZN5boost9unit_test12impl_fixture13call_teardownILb0EEclIN6VECTOR3MULEEEvRT_
FNDA:1,_ZN5boost9unit_test12impl_fixture13call_teardownILb0EEclIN6VECTOR5CROSSEEEvRT_
FNDA:1,_ZN5boost9unit_test12impl_fixture13call_teardownILb0EEclIN6VECTOR7ADD_SUBEEEvRT_
FNDA:1,_ZN5boost9unit_test12impl_fixture13call_teardownILb0EEclIN8GEOMETRY9TRANSLATEEEEvRT_
FNDA:1,_ZN5boost9unit_test17setup_conditionalIN6MATRIX22Multiplication_Mat_MatEEEvRT_
FNDA:1,_ZN5boost9unit_test17setup_conditionalIN6MATRIX22Multiplication_Mat_VecEEEvRT_
FNDA:1,_ZN5boost9unit_test17setup_conditionalIN6MATRIX8ColMajorEEEvRT_
FNDA:1,_ZN5boost9unit_test17setup_conditionalIN6MATRIX8IdentityEEEvRT_
FNDA:1,_ZN5boost9unit_test17setup_conditionalIN6VECTOR3DOTEEEvRT_
FNDA:1,_ZN5boost9unit_test17setup_conditionalIN6VECTOR3MULEEEvRT_
FNDA:1,_ZN5boost9unit_test17setup_conditionalIN6VECTOR5CROSSEEEvRT_
FNDA:1,_ZN5boost9unit_test17setup_conditionalIN6VECTOR7ADD_SUBEEEvRT_
FNDA:1,_ZN5boost9unit_test17setup_conditionalIN8GEOMETRY9TRANSLATEEEEvRT_
FNDA:1,_ZN5boost9unit_test20teardown_conditionalIN6MATRIX22Multiplication_Mat_MatEEEvRT_
FNDA:1,_ZN5boost9unit_test20teardown_conditionalIN6MATRIX22Multiplication_Mat_VecEEEvRT_
FNDA:1,_ZN5boost9unit_test20teardown_conditionalIN6MATRIX8ColMajorEEEvRT_
FNDA:1,_ZN5boost9unit_test20teardown_conditionalIN6MATRIX8IdentityEEEvRT_
FNDA:1,_ZN5boost9unit_test20teardown_conditionalIN6VECTOR3DOTEEEvRT_
FNDA:1,_ZN5boost9unit_test20teardown_conditionalIN6VECTOR3MULEEEvRT_
FNDA:1,_ZN5boost9unit_test20teardown_conditionalIN6VECTOR5CROSSEEEvRT_
FNDA:1,_ZN5boost9unit_test20teardown_conditionalIN6VECTOR7ADD_SUBEEEvRT_
FNDA:1,_ZN5boost9unit_test20teardown_conditionalIN8GEOMETRY9TRANSLATEEEEvRT_
FNDA:1,_ZN5boost9unit_test12impl_fixture10call_setupILb0EEclIN6MATRIX22Multiplication_Mat_MatEEEvRT_
FNDA:1,_ZN5boost9unit_test12impl_fixture10call_setupILb0EEclIN6MATRIX22Multiplication_Mat_VecEEEvRT_
FNDA:1,_ZN5boost9unit_test12impl_fixture10call_setupILb0EEclIN6MATRIX8ColMajorEEEvRT_
FNDA:1,_ZN5boost9unit_test12impl_fixture10call_setupILb0EEclIN6MATRIX8IdentityEEEvRT_
FNDA:1,_ZN5boost9unit_test12impl_fixture10call_setupILb0EEclIN6VECTOR3DOTEEEvRT_
FNDA:1,_ZN5boost9unit_test12impl_fixture10call_setupILb0EEclIN6VECTOR3MULEEEvRT_
FNDA:1,_ZN5boost9unit_test12impl_fixture10call_setupILb0EEclIN6VECTOR5CROSSEEEvRT_
FNDA:1,_ZN5boost9unit_test12impl_fixture10call_setupILb0EEclIN6VECTOR7ADD_SUBEEEvRT_
FNDA:1,_ZN5boost9unit_test12impl_fixture10call_setupILb0EEclIN8GEOMETRY9TRANSLATEEEEvRT_
FNF:36
FNH:36
DA:98,9
DA:104,9
DA:112,9
DA:113,9
DA:118,9
DA:119,9
LF:6
LH:6
end_of_record
TN:
SF:/home/tyler/src/wren/build/include/boost/test/tree/test_unit.hpp
FN:263,266,_ZN5boost9unit_test14make_test_caseERKNS_8functionIFvvEEENS0_13basic_cstringIKcEES8_m
FNDA:9,_ZN5boost9unit_test14make_test_caseERKNS_8functionIFvvEEENS0_13basic_cstringIKcEES8_m
FNF:1
FNH:1
DA:263,9
DA:265,9
DA:266,0
LF:3
LH:2
end_of_record
TN:
SF:/home/tyler/src/wren/build/include/boost/test/unit_test.hpp
FN:63,65,main
FNDA:3,main
FNF:1
FNH:1
DA:63,3
DA:65,3
LF:2
LH:2
end_of_record
TN:
SF:/home/tyler/src/wren/build/include/boost/test/unit_test_suite.hpp
FN:387,394,_Z14init_unit_testv
FNDA:3,_Z14init_unit_testv
FNF:1
FNH:1
DA:387,3
DA:394,3
LF:2
LH:2
end_of_record
TN:
SF:/home/tyler/src/wren/build/include/boost/test/utils/basic_cstring/basic_cstring.hpp
FN:206,208,_ZN5boost9unit_test13basic_cstringIKcE8null_strEv
FN:215,219,_ZN5boost9unit_test13basic_cstringIKcEC2Ev
FN:225,229,_ZN5boost9unit_test13basic_cstringIKcEC2ERKS3_
FN:235,239,_ZN5boost9unit_test13basic_cstringIKcEC2ERKNSt7__cxx1112basic_stringIcSt11char_traitsIcESaIcEEE
FN:245,249,_ZN5boost9unit_test13basic_cstringIKcEC2EPS2_
FN:286,288,_ZNK5boost9unit_test13basic_cstringIKcE4sizeEv
FN:295,297,_ZNK5boost9unit_test13basic_cstringIKcE8is_emptyEv
FN:313,316,_ZN5boost9unit_test13basic_cstringIKcE5clearEv
FN:345,351,_ZN5boost9unit_test13basic_cstringIKcE9trim_leftEPS2_
FN:358,369,_ZN5boost9unit_test13basic_cstringIKcE9trim_leftES3_
FN:389,395,_ZN5boost9unit_test13basic_cstringIKcE10trim_rightEPS2_
FN:402,420,_ZN5boost9unit_test13basic_cstringIKcE10trim_rightES3_
FN:426,431,_ZN5boost9unit_test13basic_cstringIKcE4trimES3_
FN:438,443,_ZN5boost9unit_test13basic_cstringIKcEaSERKS3_
FN:512,514,_ZN5boost9unit_test13basic_cstringIKcE5beginEv
FN:521,523,_ZNK5boost9unit_test13basic_cstringIKcE5beginEv
FN:530,532,_ZN5boost9unit_test13basic_cstringIKcE3endEv
FN:539,541,_ZNK5boost9unit_test13basic_cstringIKcE3endEv
FN:601,605,_ZN5boost9unit_test13basic_cstringIKcE15default_trim_exEv
FN:83,83,_ZN5boost9unit_test13basic_cstringIKcEC2IiEEPS2_T_
FN:83,83,_ZN5boost9unit_test13basic_cstringIKcEC2ImEEPS2_T_
FNDA:21,_ZN5boost9unit_test13basic_cstringIKcE8null_strEv
FNDA:21,_ZN5boost9unit_test13basic_cstringIKcEC2Ev
FNDA:27,_ZN5boost9unit_test13basic_cstringIKcEC2ERKS3_
FNDA:54,_ZN5boost9unit_test13basic_cstringIKcEC2ERKNSt7__cxx1112basic_stringIcSt11char_traitsIcESaIcEEE
FNDA:27,_ZN5boost9unit_test13basic_cstringIKcEC2EPS2_
FNDA:9,_ZNK5boost9unit_test13basic_cstringIKcE4sizeEv
FNDA:6,_ZNK5boost9unit_test13basic_cstringIKcE8is_emptyEv
FNDA:0,_ZN5boost9unit_test13basic_cstringIKcE5clearEv
FNDA:3,_ZN5boost9unit_test13basic_cstringIKcE9trim_leftEPS2_
FNDA:3,_ZN5boost9unit_test13basic_cstringIKcE9trim_leftES3_
FNDA:3,_ZN5boost9unit_test13basic_cstringIKcE10trim_rightEPS2_
FNDA:3,_ZN5boost9unit_test13basic_cstringIKcE10trim_rightES3_
FNDA:3,_ZN5boost9unit_test13basic_cstringIKcE4trimES3_
FNDA:0,_ZN5boost9unit_test13basic_cstringIKcEaSERKS3_
FNDA:9,_ZN5boost9unit_test13basic_cstringIKcE5beginEv
FNDA:0,_ZNK5boost9unit_test13basic_cstringIKcE5beginEv
FNDA:6,_ZN5boost9unit_test13basic_cstringIKcE3endEv
FNDA:0,_ZNK5boost9unit_test13basic_cstringIKcE3endEv
FNDA:0,_ZN5boost9unit_test13basic_cstringIKcE15default_trim_exEv
FNDA:0,_ZN5boost9unit_test13basic_cstringIKcEC2IiEEPS2_T_
FNDA:111,_ZN5boost9unit_test13basic_cstringIKcEC2ImEEPS2_T_
FNF:21
FNH:15
DA:83,111
DA:206,21
DA:208,21
DA:215,21
DA:216,21
DA:217,21
DA:219,21
DA:225,27
DA:226,27
DA:227,27
DA:229,27
DA:235,54
DA:236,54
DA:237,54
DA:239,54
DA:245,27
DA:246,27
DA:247,27
DA:249,27
DA:286,9
DA:288,9
DA:295,6
DA:297,6
DA:313,0
DA:315,0
DA:316,0
DA:345,3
DA:347,3
DA:348,3
DA:349,0
DA:351,3
DA:358,3
DA:360,3
DA:361,0
DA:364,3
DA:365,3
DA:366,3
DA:367,0
DA:369,3
DA:389,3
DA:391,3
DA:392,3
DA:393,0
DA:395,3
DA:402,3
DA:404,3
DA:405,0
DA:408,3
DA:409,0
DA:411,3
DA:413,3
DA:414,3
DA:415,3
DA:416,3
DA:417,0
DA:419,3
DA:420,3
DA:426,3
DA:428,3
DA:429,3
DA:431,3
DA:438,0
DA:440,0
DA:441,0
DA:443,0
DA:512,9
DA:514,9
DA:521,0
DA:523,0
DA:530,6
DA:532,6
DA:539,0
DA:541,0
DA:601,0
DA:605,0
LF:75
LH:55
end_of_record
TN:
SF:/home/tyler/src/wren/build/include/boost/test/utils/basic_cstring/bcs_char_traits.hpp
FN:60,62,_ZN5boost9unit_test9ut_detail20bcs_char_traits_implIKcE2eqEcc
FN:82,90,_ZN5boost9unit_test9ut_detail20bcs_char_traits_implIKcE6lengthEPS3_
FN:93,103,_ZN5boost9unit_test9ut_detail20bcs_char_traits_implIKcE4findEPS3_mc
FNDA:495,_ZN5boost9unit_test9ut_detail20bcs_char_traits_implIKcE2eqEcc
FNDA:27,_ZN5boost9unit_test9ut_detail20bcs_char_traits_implIKcE6lengthEPS3_
FNDA:6,_ZN5boost9unit_test9ut_detail20bcs_char_traits_implIKcE4findEPS3_mc
FNF:3
FNH:3
DA:60,495
DA:62,495
DA:82,27
DA:84,27
DA:86,27
DA:87,489
DA:88,462
DA:90,27
DA:93,6
DA:95,12
DA:96,6
DA:97,0
DA:99,6
DA:100,6
DA:102,6
DA:103,6
LF:16
LH:15
end_of_record
TN:
SF:/home/tyler/src/wren/build/include/boost/test/utils/basic_cstring/io.hpp
FN:51,58,_ZN5boost9unit_testlsIcSt11char_traitsIcEKcEERSt13basic_ostreamIT_T0_ES9_RKNS0_13basic_cstringIT1_EE
FNDA:0,_ZN5boost9unit_testlsIcSt11char_traitsIcEKcEERSt13basic_ostreamIT_T0_ES9_RKNS0_13basic_cstringIT1_EE
FNF:1
FNH:0
DA:51,0
DA:53,0
DA:54,0
DA:55,0
DA:57,0
DA:58,0
LF:6
LH:0
end_of_record
TN:
SF:/home/tyler/src/wren/build/include/boost/test/utils/class_properties.hpp
FN:131,131,_ZN5boost9unit_test17readonly_propertyIbEC2Eb
FN:54,55,_ZN5boost9unit_test14class_propertyIbEC2Eb
FN:60,60,_ZNK5boost9unit_test14class_propertyIbEntEv
FNDA:21,_ZN5boost9unit_test17readonly_propertyIbEC2Eb
FNDA:21,_ZN5boost9unit_test14class_propertyIbEC2Eb
FNDA:24,_ZNK5boost9unit_test14class_propertyIbEntEv
FNF:3
FNH:3
DA:54,21
DA:55,21
DA:60,24
DA:131,21
LF:4
LH:4
end_of_record
TN:
SF:/home/tyler/src/wren/build/include/boost/test/utils/lazy_ostream.hpp
FN:34,34,_ZN5boost9unit_test12lazy_ostreamD0Ev
FN:34,34,_ZN5boost9unit_test12lazy_ostreamD2Ev
FN:36,36,_ZN5boost9unit_test12lazy_ostream8instanceEv
FN:49,49,_ZNK5boost9unit_test12lazy_ostream5emptyEv
FN:52,52,_ZNK5boost9unit_test12lazy_ostreamclERSo
FN:54,54,_ZN5boost9unit_test12lazy_ostreamC2Eb
FN:71,_ZN5boost9unit_test17lazy_ostream_implINS0_12lazy_ostreamENS0_13basic_cstringIKcEERKS5_ED0Ev
FN:71,_ZN5boost9unit_test17lazy_ostream_implINS0_12lazy_ostreamENS0_13basic_cstringIKcEERKS5_ED2Ev
FN:73,78,_ZN5boost9unit_test17lazy_ostream_implINS0_12lazy_ostreamENS0_13basic_cstringIKcEERKS5_EC2ERKS2_S7_
FN:80,82,_ZNK5boost9unit_test17lazy_ostream_implINS0_12lazy_ostreamENS0_13basic_cstringIKcEERKS5_EclERSo
FN:94,96,_ZN5boost9unit_testlsINS0_13basic_cstringIKcEEEENS0_17lazy_ostream_implINS0_12lazy_ostreamET_RKS7_EERKS6_S9_
FNDA:0,_ZN5boost9unit_test12lazy_ostreamD0Ev
FNDA:21,_ZN5boost9unit_test12lazy_ostreamD2Ev
FNDA:24,_ZN5boost9unit_test12lazy_ostream8instanceEv
FNDA:3,_ZNK5boost9unit_test12lazy_ostream5emptyEv
FNDA:0,_ZNK5boost9unit_test12lazy_ostreamclERSo
FNDA:21,_ZN5boost9unit_test12lazy_ostreamC2Eb
FNDA:0,_ZN5boost9unit_test17lazy_ostream_implINS0_12lazy_ostreamENS0_13basic_cstringIKcEERKS5_ED0Ev
FNDA:21,_ZN5boost9unit_test17lazy_ostream_implINS0_12lazy_ostreamENS0_13basic_cstringIKcEERKS5_ED2Ev
FNDA:21,_ZN5boost9unit_test17lazy_ostream_implINS0_12lazy_ostreamENS0_13basic_cstringIKcEERKS5_EC2ERKS2_S7_
FNDA:0,_ZNK5boost9unit_test17lazy_ostream_implINS0_12lazy_ostreamENS0_13basic_cstringIKcEERKS5_EclERSo
FNDA:21,_ZN5boost9unit_testlsINS0_13basic_cstringIKcEEEENS0_17lazy_ostream_implINS0_12lazy_ostreamET_RKS7_EERKS6_S9_
FNF:11
FNH:7
DA:34,21
DA:36,24
DA:49,3
DA:52,0
DA:54,21
DA:73,21
DA:74,21
DA:75,21
DA:76,21
DA:77,21
DA:78,21
DA:80,0
DA:82,0
DA:94,21
DA:96,21
LF:15
LH:12
end_of_record
TN:
SF:/home/tyler/src/wren/build/include/boost/test/utils/wrap_stringstream.hpp
FN:40,_ZN5boost23basic_wrap_stringstreamIcEC2Ev
FN:40,_ZN5boost23basic_wrap_stringstreamIcED2Ev
FN:64,_ZN5boostlsIcA10_cEERNS_23basic_wrap_stringstreamIT_EES5_RKT0_
FN:64,_ZN5boostlsIcA13_cEERNS_23basic_wrap_stringstreamIT_EES5_RKT0_
FN:64,_ZN5boostlsIcA15_cEERNS_23basic_wrap_stringstreamIT_EES5_RKT0_
FN:64,_ZN5boostlsIcA16_cEERNS_23basic_wrap_stringstreamIT_EES5_RKT0_
FN:64,_ZN5boostlsIcA19_cEERNS_23basic_wrap_stringstreamIT_EES5_RKT0_
FN:64,_ZN5boostlsIcA23_cEERNS_23basic_wrap_stringstreamIT_EES5_RKT0_
FN:64,_ZN5boostlsIcA36_cEERNS_23basic_wrap_stringstreamIT_EES5_RKT0_
FN:64,_ZN5boostlsIcA40_cEERNS_23basic_wrap_stringstreamIT_EES5_RKT0_
FN:64,_ZN5boostlsIcA4_cEERNS_23basic_wrap_stringstreamIT_EES5_RKT0_
FN:64,_ZN5boostlsIcA5_cEERNS_23basic_wrap_stringstreamIT_EES5_RKT0_
FN:64,_ZN5boostlsIcA6_cEERNS_23basic_wrap_stringstreamIT_EES5_RKT0_
FN:64,_ZN5boostlsIcA8_cEERNS_23basic_wrap_stringstreamIT_EES5_RKT0_
FN:64,_ZN5boostlsIcA9_cEERNS_23basic_wrap_stringstreamIT_EES5_RKT0_
FN:64,_ZN5boostlsIccEERNS_23basic_wrap_stringstreamIT_EES4_RKT0_
FN:64,_ZN5boostlsIcdEERNS_23basic_wrap_stringstreamIT_EES4_RKT0_
FN:64,_ZN5boostlsIcfEERNS_23basic_wrap_stringstreamIT_EES4_RKT0_
FN:74,_ZN5boost23basic_wrap_stringstreamIcE6streamB5cxx11Ev
FN:83,_ZN5boost23basic_wrap_stringstreamIcE3refEv
FN:92,_ZN5boost23basic_wrap_stringstreamIcE3strB5cxx11Ev
FNDA:45,_ZN5boost23basic_wrap_stringstreamIcEC2Ev
FNDA:45,_ZN5boost23basic_wrap_stringstreamIcED2Ev
FNDA:5,_ZN5boostlsIcA10_cEERNS_23basic_wrap_stringstreamIT_EES5_RKT0_
FNDA:9,_ZN5boostlsIcA13_cEERNS_23basic_wrap_stringstreamIT_EES5_RKT0_
FNDA:18,_ZN5boostlsIcA15_cEERNS_23basic_wrap_stringstreamIT_EES5_RKT0_
FNDA:9,_ZN5boostlsIcA16_cEERNS_23basic_wrap_stringstreamIT_EES5_RKT0_
FNDA:9,_ZN5boostlsIcA19_cEERNS_23basic_wrap_stringstreamIT_EES5_RKT0_
FNDA:10,_ZN5boostlsIcA23_cEERNS_23basic_wrap_stringstreamIT_EES5_RKT0_
FNDA:0,_ZN5boostlsIcA36_cEERNS_23basic_wrap_stringstreamIT_EES5_RKT0_
FNDA:0,_ZN5boostlsIcA40_cEERNS_23basic_wrap_stringstreamIT_EES5_RKT0_
FNDA:10,_ZN5boostlsIcA4_cEERNS_23basic_wrap_stringstreamIT_EES5_RKT0_
FNDA:0,_ZN5boostlsIcA5_cEERNS_23basic_wrap_stringstreamIT_EES5_RKT0_
FNDA:5,_ZN5boostlsIcA6_cEERNS_23basic_wrap_stringstreamIT_EES5_RKT0_
FNDA:5,_ZN5boostlsIcA8_cEERNS_23basic_wrap_stringstreamIT_EES5_RKT0_
FNDA:10,_ZN5boostlsIcA9_cEERNS_23basic_wrap_stringstreamIT_EES5_RKT0_
FNDA:45,_ZN5boostlsIccEERNS_23basic_wrap_stringstreamIT_EES4_RKT0_
FNDA:0,_ZN5boostlsIcdEERNS_23basic_wrap_stringstreamIT_EES4_RKT0_
FNDA:0,_ZN5boostlsIcfEERNS_23basic_wrap_stringstreamIT_EES4_RKT0_
FNDA:135,_ZN5boost23basic_wrap_stringstreamIcE6streamB5cxx11Ev
FNDA:45,_ZN5boost23basic_wrap_stringstreamIcE3refEv
FNDA:45,_ZN5boost23basic_wrap_stringstreamIcE3strB5cxx11Ev
FNF:21
FNH:16
DA:64,135
DA:66,135
DA:67,135
DA:74,135
DA:76,135
DA:83,45
DA:85,45
DA:92,45
DA:99,45
DA:102,45
LF:10
LH:10
end_of_record
TN:
SF:/home/tyler/src/wren/wren_math/include/wren/math/matrix.hpp
FN:18,23,_ZN4wren4math3MatIfLm4ELm4EE8identityEv
FN:26,26,_ZN4wren4math3MatIfLm2ELm2EEC2Ev
FN:26,26,_ZN4wren4math3MatIfLm4ELm4EEC2Ev
FN:27,27,_ZN4wren4math3MatIfLm4ELm4EEC2ERKSt5arrayIfLm16EE
FN:37,37,_ZNK4wren4math3MatIfLm2ELm2EEeqERKS2_
FN:37,37,_ZNK4wren4math3MatIfLm4ELm4EEeqERKS2_
FN:39,52,_ZN4wren4math3MatIfLm2ELm2EEmlERKS2_
FN:39,52,_ZN4wren4math3MatIfLm4ELm4EEmlERKS2_
FN:55,66,_ZN4wren4math3MatIfLm2ELm2EEmlERKNS0_3VecIfLm2EEE
FN:69,70,_ZN4wren4math3MatIfLm2ELm2EE2atEmm
FN:69,70,_ZN4wren4math3MatIfLm4ELm4EE2atEmm
FN:72,73,_ZNK4wren4math3MatIfLm2ELm2EE2atEmm
FN:72,73,_ZNK4wren4math3MatIfLm4ELm4EE2atEmm
FN:76,76,_ZNK4wren4math3MatIfLm2ELm2EE4dataEv
FN:76,76,_ZNK4wren4math3MatIfLm4ELm4EE4dataEv
FN:79,83,_ZN4wren4math3MatIfLm2ELm2EE9get_indexEmm
FN:79,83,_ZN4wren4math3MatIfLm4ELm4EE9get_indexEmm
FN:87,87,_ZN4wren4math5Mat4fC2Ev
FN:88,88,_ZN4wren4math5Mat4fC2ERKNS0_3MatIfLm4ELm4EEE
FN:89,89,_ZN4wren4math5Mat4fC2ERKSt5arrayIfLm16EE
FNDA:4,_ZN4wren4math3MatIfLm4ELm4EE8identityEv
FNDA:6,_ZN4wren4math3MatIfLm2ELm2EEC2Ev
FNDA:10,_ZN4wren4math3MatIfLm4ELm4EEC2Ev
FNDA:1,_ZN4wren4math3MatIfLm4ELm4EEC2ERKSt5arrayIfLm16EE
FNDA:1,_ZNK4wren4math3MatIfLm2ELm2EEeqERKS2_
FNDA:4,_ZNK4wren4math3MatIfLm4ELm4EEeqERKS2_
FNDA:1,_ZN4wren4math3MatIfLm2ELm2EEmlERKS2_
FNDA:3,_ZN4wren4math3MatIfLm4ELm4EEmlERKS2_
FNDA:1,_ZN4wren4math3MatIfLm2ELm2EEmlERKNS0_3VecIfLm2EEE
FNDA:44,_ZN4wren4math3MatIfLm2ELm2EE2atEmm
FNDA:456,_ZN4wren4math3MatIfLm4ELm4EE2atEmm
FNDA:8,_ZNK4wren4math3MatIfLm2ELm2EE2atEmm
FNDA:192,_ZNK4wren4math3MatIfLm4ELm4EE2atEmm
FNDA:4,_ZNK4wren4math3MatIfLm2ELm2EE4dataEv
FNDA:1,_ZNK4wren4math3MatIfLm4ELm4EE4dataEv
FNDA:52,_ZN4wren4math3MatIfLm2ELm2EE9get_indexEmm
FNDA:648,_ZN4wren4math3MatIfLm4ELm4EE9get_indexEmm
FNDA:3,_ZN4wren4math5Mat4fC2Ev
FNDA:4,_ZN4wren4math5Mat4fC2ERKNS0_3MatIfLm4ELm4EEE
FNDA:1,_ZN4wren4math5Mat4fC2ERKSt5arrayIfLm16EE
FNF:20
FNH:20
DA:18,4
DA:19,4
DA:20,20
DA:21,16
DA:22,16
DA:23,4
DA:26,32
DA:27,1
DA:37,5
DA:39,4
DA:40,4
DA:44,18
DA:45,66
DA:46,52
DA:47,252
DA:48,200
DA:49,200
DA:50,52
DA:51,14
DA:52,4
DA:55,1
DA:56,1
DA:60,3
DA:61,6
DA:62,4
DA:63,4
DA:64,2
DA:66,1
DA:69,500
DA:70,500
DA:72,200
DA:73,200
DA:76,5
DA:79,700
DA:80,700
DA:83,16
DA:87,3
DA:88,4
DA:89,1
LF:39
LH:39
end_of_record
TN:
SF:/home/tyler/src/wren/wren_math/include/wren/math/utils.hpp
FN:11,19,_ZN4wren4mathlsIfLm2EEERSoS2_RKNS0_3VecIT_XT0_EEE
FN:11,19,_ZN4wren4mathlsIfLm3EEERSoS2_RKNS0_3VecIT_XT0_EEE
FN:23,36,_ZN4wren4mathlsIfLm2ELm2EEERSoS2_RKNS0_3MatIT_XT0_EXT1_EEE
FN:23,36,_ZN4wren4mathlsIfLm4ELm4EEERSoS2_RKNS0_3MatIT_XT0_EXT1_EEE
FNDA:0,_ZN4wren4mathlsIfLm2EEERSoS2_RKNS0_3VecIT_XT0_EEE
FNDA:0,_ZN4wren4mathlsIfLm3EEERSoS2_RKNS0_3VecIT_XT0_EEE
FNDA:0,_ZN4wren4mathlsIfLm2ELm2EEERSoS2_RKNS0_3MatIT_XT0_EXT1_EEE
FNDA:0,_ZN4wren4mathlsIfLm4ELm4EEERSoS2_RKNS0_3MatIT_XT0_EXT1_EEE
FNF:4
FNH:0
DA:11,0
DA:12,0
DA:13,0
DA:14,0
DA:15,0
DA:16,0
DA:17,0
DA:19,0
DA:23,0
DA:25,0
DA:27,0
DA:28,0
DA:29,0
DA:30,0
DA:31,0
DA:33,0
DA:34,0
DA:35,0
DA:36,0
LF:19
LH:0
end_of_record
TN:
SF:/home/tyler/src/wren/wren_math/include/wren/math/vector.hpp
FN:104,107,_ZNK4wren4math3VecIfLm3EE6lengthEv
FN:110,110,_ZNK4wren4math3VecIfLm3EE10normalizedEv
FN:125,125,_ZN4wren4math5Vec2fC2Ev
FN:126,126,_ZN4wren4math5Vec2fC2Eff
FN:127,127,_ZN4wren4math5Vec2fC2ERKNS0_3VecIfLm2EEE
FN:137,137,_ZN4wren4math5Vec3fC2Efff
FN:138,138,_ZN4wren4math5Vec3fC2ERKNS0_3VecIfLm3EEE
FN:140,140,_ZNK4wren4math5Vec3f1xEv
FN:142,142,_ZNK4wren4math5Vec3f1yEv
FN:144,144,_ZNK4wren4math5Vec3f1zEv
FN:147,150,_ZNK4wren4math5Vec3frmERKS1_
FN:158,159,_ZN4wren4math5Vec4fC2ERKNS0_5Vec3fEf
FN:16,16,_ZN4wren4math3VecIfLm2EEC2Ev
FN:16,16,_ZN4wren4math3VecIfLm3EEC2Ev
FN:18,18,_ZN4wren4math3VecIfLm2EEC2ESt5arrayIfLm2EE
FN:18,18,_ZN4wren4math3VecIfLm3EEC2ESt5arrayIfLm3EE
FN:18,18,_ZN4wren4math3VecIfLm4EEC2ESt5arrayIfLm4EE
FN:28,28,_ZN4wren4math3VecIfLm2EE2atEm
FN:29,29,_ZNK4wren4math3VecIfLm2EE2atEm
FN:37,40,_ZNK4wren4math3VecIfLm2EEmlEf
FN:57,62,_ZNK4wren4math3VecIfLm3EE3dotERKS2_
FN:70,74,_ZNK4wren4math3VecIfLm2EEplERKS2_
FN:77,81,_ZNK4wren4math3VecIfLm2EEmiERKS2_
FN:77,81,_ZNK4wren4math3VecIfLm3EEmiERKS2_
FN:90,93,_ZNK4wren4math3VecIfLm3EEdvEf
FN:96,97,_ZNK4wren4math3VecIfLm2EEeqERKS2_
FN:96,97,_ZNK4wren4math3VecIfLm3EEeqERKS2_
FNDA:6,_ZNK4wren4math3VecIfLm3EE6lengthEv
FNDA:6,_ZNK4wren4math3VecIfLm3EE10normalizedEv
FNDA:2,_ZN4wren4math5Vec2fC2Ev
FNDA:12,_ZN4wren4math5Vec2fC2Eff
FNDA:4,_ZN4wren4math5Vec2fC2ERKNS0_3VecIfLm2EEE
FNDA:20,_ZN4wren4math5Vec3fC2Efff
FNDA:0,_ZN4wren4math5Vec3fC2ERKNS0_3VecIfLm3EEE
FNDA:14,_ZNK4wren4math5Vec3f1xEv
FNDA:14,_ZNK4wren4math5Vec3f1yEv
FNDA:14,_ZNK4wren4math5Vec3f1zEv
FNDA:3,_ZNK4wren4math5Vec3frmERKS1_
FNDA:2,_ZN4wren4math5Vec4fC2ERKNS0_5Vec3fEf
FNDA:7,_ZN4wren4math3VecIfLm2EEC2Ev
FNDA:6,_ZN4wren4math3VecIfLm3EEC2Ev
FNDA:12,_ZN4wren4math3VecIfLm2EEC2ESt5arrayIfLm2EE
FNDA:20,_ZN4wren4math3VecIfLm3EEC2ESt5arrayIfLm3EE
FNDA:2,_ZN4wren4math3VecIfLm4EEC2ESt5arrayIfLm4EE
FNDA:4,_ZN4wren4math3VecIfLm2EE2atEm
FNDA:4,_ZNK4wren4math3VecIfLm2EE2atEm
FNDA:2,_ZNK4wren4math3VecIfLm2EEmlEf
FNDA:3,_ZNK4wren4math3VecIfLm3EE3dotERKS2_
FNDA:1,_ZNK4wren4math3VecIfLm2EEplERKS2_
FNDA:1,_ZNK4wren4math3VecIfLm2EEmiERKS2_
FNDA:0,_ZNK4wren4math3VecIfLm3EEmiERKS2_
FNDA:6,_ZNK4wren4math3VecIfLm3EEdvEf
FNDA:5,_ZNK4wren4math3VecIfLm2EEeqERKS2_
FNDA:3,_ZNK4wren4math3VecIfLm3EEeqERKS2_
FNF:27
FNH:25
DA:16,13
DA:18,34
DA:28,4
DA:29,4
DA:37,2
DA:38,2
DA:39,6
DA:40,2
DA:57,3
DA:58,3
DA:59,3
DA:60,3
DA:61,12
DA:62,3
DA:70,1
DA:71,1
DA:72,3
DA:73,2
DA:74,1
DA:77,1
DA:78,1
DA:79,3
DA:80,2
DA:81,1
DA:90,6
DA:91,6
DA:92,24
DA:93,6
DA:96,8
DA:97,8
DA:104,6
DA:105,6
DA:106,24
DA:107,6
DA:110,6
DA:125,2
DA:126,12
DA:127,4
DA:137,20
DA:138,0
DA:140,14
DA:142,14
DA:144,14
DA:147,3
DA:148,6
DA:149,3
DA:150,3
DA:158,2
DA:159,2
LF:49
LH:48
end_of_record
TN:
SF:/home/tyler/src/wren/wren_math/src/geometry.cpp
FN:10,31,_ZN4wren4math7look_atERKNS0_5Vec3fES3_S3_
FN:34,42,_ZN4wren4math9translateENS0_5Mat4fENS0_5Vec4fE
FN:45,46,_ZN4wren4math9translateENS0_5Mat4fENS0_5Vec3fE
FN:49,86,_ZN4wren4math6rotateERKNS0_5Mat4fEfRKNS0_5Vec3fE
FNDA:0,_ZN4wren4math7look_atERKNS0_5Vec3fES3_S3_
FNDA:2,_ZN4wren4math9translateENS0_5Mat4fENS0_5Vec4fE
FNDA:2,_ZN4wren4math9translateENS0_5Mat4fENS0_5Vec3fE
FNDA:0,_ZN4wren4math6rotateERKNS0_5Mat4fEfRKNS0_5Vec3fE
FNF:4
FNH:2
DA:10,0
DA:12,0
DA:13,0
DA:14,0
DA:15,0
DA:17,0
DA:19,0
DA:20,0
DA:21,0
DA:22,0
DA:23,0
DA:24,0
DA:25,0
DA:26,0
DA:27,0
DA:28,0
DA:29,0
DA:30,0
DA:31,0
DA:34,2
DA:35,2
DA:37,2
DA:38,2
DA:39,2
DA:40,2
DA:42,2
DA:45,2
DA:46,2
DA:49,0
DA:50,0
DA:51,0
DA:52,0
DA:53,0
DA:54,0
DA:55,0
DA:56,0
DA:57,0
DA:58,0
DA:59,0
DA:60,0
DA:61,0
DA:62,0
DA:63,0
DA:65,0
DA:66,0
DA:67,0
DA:68,0
DA:69,0
DA:71,0
DA:72,0
DA:73,0
DA:74,0
DA:76,0
DA:77,0
DA:78,0
DA:79,0
DA:81,0
DA:82,0
DA:83,0
DA:84,0
DA:86,0
LF:61
LH:9
end_of_record
TN:
SF:/home/tyler/src/wren/wren_math/tests/geometry.cpp
FN:9,_ZN8GEOMETRY9TRANSLATE11test_methodEv
FN:9,_ZN8GEOMETRYL17TRANSLATE_invokerEv
FNDA:1,_ZN8GEOMETRY9TRANSLATE11test_methodEv
FNDA:1,_ZN8GEOMETRYL17TRANSLATE_invokerEv
FNF:2
FNH:2
DA:7,1
DA:9,3
DA:15,1
DA:16,3
DA:17,1
DA:18,1
DA:20,2
DA:21,1
DA:22,1
DA:31,3
DA:32,2
DA:33,2
DA:35,1
DA:37,1
LF:14
LH:14
end_of_record
TN:
SF:/home/tyler/src/wren/wren_math/tests/matrix.cpp
FN:20,_ZN6MATRIX8Identity11test_methodEv
FN:20,_ZN6MATRIXL16Identity_invokerEv
FN:40,_ZN6MATRIX22Multiplication_Mat_Mat11test_methodEv
FN:40,_ZN6MATRIXL30Multiplication_Mat_Mat_invokerEv
FN:64,_ZN6MATRIX22Multiplication_Mat_Vec11test_methodEv
FN:64,_ZN6MATRIXL30Multiplication_Mat_Vec_invokerEv
FN:7,_ZN6MATRIX8ColMajor11test_methodEv
FN:7,_ZN6MATRIXL16ColMajor_invokerEv
FNDA:1,_ZN6MATRIX8Identity11test_methodEv
FNDA:1,_ZN6MATRIXL16Identity_invokerEv
FNDA:1,_ZN6MATRIX22Multiplication_Mat_Mat11test_methodEv
FNDA:1,_ZN6MATRIXL30Multiplication_Mat_Mat_invokerEv
FNDA:1,_ZN6MATRIX22Multiplication_Mat_Vec11test_methodEv
FNDA:1,_ZN6MATRIXL30Multiplication_Mat_Vec_invokerEv
FNDA:1,_ZN6MATRIX8ColMajor11test_methodEv
FNDA:1,_ZN6MATRIXL16ColMajor_invokerEv
FNF:8
FNH:8
DA:5,1
DA:7,3
DA:8,1
DA:9,1
DA:10,1
DA:11,1
DA:12,1
DA:14,1
DA:15,1
DA:16,1
DA:17,1
DA:18,1
DA:20,3
DA:21,1
DA:30,1
DA:31,1
DA:33,1
DA:35,1
DA:36,1
DA:37,1
DA:38,1
DA:40,3
DA:41,1
DA:42,1
DA:43,1
DA:44,1
DA:45,1
DA:47,1
DA:48,1
DA:49,1
DA:50,1
DA:51,1
DA:53,1
DA:55,1
DA:56,1
DA:57,1
DA:58,1
DA:59,1
DA:61,1
DA:62,1
DA:64,3
DA:65,1
DA:66,1
DA:67,1
DA:68,1
DA:69,1
DA:71,1
DA:73,1
DA:75,1
DA:77,1
DA:78,1
DA:80,1
LF:52
LH:52
end_of_record
TN:
SF:/home/tyler/src/wren/wren_math/tests/vector.cpp
FN:39,_ZN6VECTOR3MUL11test_methodEv
FN:39,_ZN6VECTORL11MUL_invokerEv
FN:58,_ZN6VECTOR3DOT11test_methodEv
FN:58,_ZN6VECTORL11DOT_invokerEv
FN:7,_ZN6VECTOR7ADD_SUB11test_methodEv
FN:7,_ZN6VECTORL15ADD_SUB_invokerEv
FN:77,_ZN6VECTOR5CROSS11test_methodEv
FN:77,_ZN6VECTORL13CROSS_invokerEv
FNDA:1,_ZN6VECTOR3MUL11test_methodEv
FNDA:1,_ZN6VECTORL11MUL_invokerEv
FNDA:1,_ZN6VECTOR3DOT11test_methodEv
FNDA:1,_ZN6VECTORL11DOT_invokerEv
FNDA:1,_ZN6VECTOR7ADD_SUB11test_methodEv
FNDA:1,_ZN6VECTORL15ADD_SUB_invokerEv
FNDA:1,_ZN6VECTOR5CROSS11test_methodEv
FNDA:1,_ZN6VECTORL13CROSS_invokerEv
FNF:8
FNH:8
DA:5,1
DA:7,3
DA:19,1
DA:20,1
DA:21,1
DA:24,3
DA:25,2
DA:26,2
DA:28,1
DA:29,1
DA:31,1
DA:32,1
DA:35,2
DA:37,1
DA:39,3
DA:47,1
DA:48,1
DA:49,1
DA:52,3
DA:53,2
DA:54,2
DA:56,1
DA:58,3
DA:65,1
DA:66,2
DA:67,1
DA:68,1
DA:71,4
DA:72,3
DA:73,3
DA:75,1
DA:77,3
DA:84,1
DA:85,2
DA:86,1
DA:87,1
DA:90,4
DA:91,3
DA:92,3
DA:94,1
DA:96,1
LF:41
LH:41
end_of_record
TN:
SF:/nix/store/0vsyw5bhwmisszyfd1a0sdnwvnf4qa5a-gcc-13.3.0/include/c++/13.3.0/array
FN:126,127,_ZNSt5arrayIZN6VECTOR3DOT11test_methodEvE4TestLm3EE5beginEv
FN:126,127,_ZNSt5arrayIZN6VECTOR3MUL11test_methodEvE4TestLm2EE5beginEv
FN:126,127,_ZNSt5arrayIZN6VECTOR5CROSS11test_methodEvE4TestLm3EE5beginEv
FN:126,127,_ZNSt5arrayIZN6VECTOR7ADD_SUB11test_methodEvE4TestLm2EE5beginEv
FN:126,127,_ZNSt5arrayIZN8GEOMETRY9TRANSLATE11test_methodEvE4TestLm2EE5beginEv
FN:131,132,_ZNKSt5arrayIfLm16EE5beginEv
FN:131,132,_ZNKSt5arrayIfLm2EE5beginEv
FN:131,132,_ZNKSt5arrayIfLm3EE5beginEv
FN:131,132,_ZNKSt5arrayIfLm4EE5beginEv
FN:136,137,_ZNSt5arrayIZN6VECTOR3DOT11test_methodEvE4TestLm3EE3endEv
FN:136,137,_ZNSt5arrayIZN6VECTOR3MUL11test_methodEvE4TestLm2EE3endEv
FN:136,137,_ZNSt5arrayIZN6VECTOR5CROSS11test_methodEvE4TestLm3EE3endEv
FN:136,137,_ZNSt5arrayIZN6VECTOR7ADD_SUB11test_methodEvE4TestLm2EE3endEv
FN:136,137,_ZNSt5arrayIZN8GEOMETRY9TRANSLATE11test_methodEvE4TestLm2EE3endEv
FN:141,142,_ZNKSt5arrayIfLm16EE3endEv
FN:141,142,_ZNKSt5arrayIfLm2EE3endEv
FN:141,142,_ZNKSt5arrayIfLm3EE3endEv
FN:141,142,_ZNKSt5arrayIfLm4EE3endEv
FN:187,187,_ZNKSt5arrayIfLm2EE4sizeEv
FN:187,187,_ZNKSt5arrayIfLm3EE4sizeEv
FN:217,223,_ZNSt5arrayIfLm16EE2atEm
FN:217,223,_ZNSt5arrayIfLm2EE2atEm
FN:217,223,_ZNSt5arrayIfLm3EE2atEm
FN:217,223,_ZNSt5arrayIfLm4EE2atEm
FN:227,235,_ZNKSt5arrayIfLm16EE2atEm
FN:227,235,_ZNKSt5arrayIfLm2EE2atEm
FN:227,235,_ZNKSt5arrayIfLm3EE2atEm
FN:227,235,_ZNKSt5arrayIfLm4EE2atEm
FN:276,277,_ZNSt5arrayIZN6VECTOR3DOT11test_methodEvE4TestLm3EE4dataEv
FN:276,277,_ZNSt5arrayIZN6VECTOR3MUL11test_methodEvE4TestLm2EE4dataEv
FN:276,277,_ZNSt5arrayIZN6VECTOR5CROSS11test_methodEvE4TestLm3EE4dataEv
FN:276,277,_ZNSt5arrayIZN6VECTOR7ADD_SUB11test_methodEvE4TestLm2EE4dataEv
FN:276,277,_ZNSt5arrayIZN8GEOMETRY9TRANSLATE11test_methodEvE4TestLm2EE4dataEv
FN:281,282,_ZNKSt5arrayIfLm16EE4dataEv
FN:281,282,_ZNKSt5arrayIfLm2EE4dataEv
FN:281,282,_ZNKSt5arrayIfLm3EE4dataEv
FN:281,282,_ZNKSt5arrayIfLm4EE4dataEv
FN:297,298,_ZSteqIfLm16EEbRKSt5arrayIT_XT0_EES4_
FN:297,298,_ZSteqIfLm2EEbRKSt5arrayIT_XT0_EES4_
FN:297,298,_ZSteqIfLm3EEbRKSt5arrayIT_XT0_EES4_
FN:297,298,_ZSteqIfLm4EEbRKSt5arrayIT_XT0_EES4_
FNDA:1,_ZNSt5arrayIZN6VECTOR3DOT11test_methodEvE4TestLm3EE5beginEv
FNDA:1,_ZNSt5arrayIZN6VECTOR3MUL11test_methodEvE4TestLm2EE5beginEv
FNDA:1,_ZNSt5arrayIZN6VECTOR5CROSS11test_methodEvE4TestLm3EE5beginEv
FNDA:1,_ZNSt5arrayIZN6VECTOR7ADD_SUB11test_methodEvE4TestLm2EE5beginEv
FNDA:1,_ZNSt5arrayIZN8GEOMETRY9TRANSLATE11test_methodEvE4TestLm2EE5beginEv
FNDA:10,_ZNKSt5arrayIfLm16EE5beginEv
FNDA:10,_ZNKSt5arrayIfLm2EE5beginEv
FNDA:12,_ZNKSt5arrayIfLm3EE5beginEv
FNDA:2,_ZNKSt5arrayIfLm4EE5beginEv
FNDA:1,_ZNSt5arrayIZN6VECTOR3DOT11test_methodEvE4TestLm3EE3endEv
FNDA:1,_ZNSt5arrayIZN6VECTOR3MUL11test_methodEvE4TestLm2EE3endEv
FNDA:1,_ZNSt5arrayIZN6VECTOR5CROSS11test_methodEvE4TestLm3EE3endEv
FNDA:1,_ZNSt5arrayIZN6VECTOR7ADD_SUB11test_methodEvE4TestLm2EE3endEv
FNDA:1,_ZNSt5arrayIZN8GEOMETRY9TRANSLATE11test_methodEvE4TestLm2EE3endEv
FNDA:5,_ZNKSt5arrayIfLm16EE3endEv
FNDA:5,_ZNKSt5arrayIfLm2EE3endEv
FNDA:9,_ZNKSt5arrayIfLm3EE3endEv
FNDA:1,_ZNKSt5arrayIfLm4EE3endEv
FNDA:0,_ZNKSt5arrayIfLm2EE4sizeEv
FNDA:0,_ZNKSt5arrayIfLm3EE4sizeEv
FNDA:456,_ZNSt5arrayIfLm16EE2atEm
FNDA:12,_ZNSt5arrayIfLm2EE2atEm
FNDA:18,_ZNSt5arrayIfLm3EE2atEm
FNDA:56,_ZNSt5arrayIfLm4EE2atEm
FNDA:192,_ZNKSt5arrayIfLm16EE2atEm
FNDA:16,_ZNKSt5arrayIfLm2EE2atEm
FNDA:78,_ZNKSt5arrayIfLm3EE2atEm
FNDA:8,_ZNKSt5arrayIfLm4EE2atEm
FNDA:2,_ZNSt5arrayIZN6VECTOR3DOT11test_methodEvE4TestLm3EE4dataEv
FNDA:2,_ZNSt5arrayIZN6VECTOR3MUL11test_methodEvE4TestLm2EE4dataEv
FNDA:2,_ZNSt5arrayIZN6VECTOR5CROSS11test_methodEvE4TestLm3EE4dataEv
FNDA:2,_ZNSt5arrayIZN6VECTOR7ADD_SUB11test_methodEvE4TestLm2EE4dataEv
FNDA:2,_ZNSt5arrayIZN8GEOMETRY9TRANSLATE11test_methodEvE4TestLm2EE4dataEv
FNDA:15,_ZNKSt5arrayIfLm16EE4dataEv
FNDA:15,_ZNKSt5arrayIfLm2EE4dataEv
FNDA:21,_ZNKSt5arrayIfLm3EE4dataEv
FNDA:3,_ZNKSt5arrayIfLm4EE4dataEv
FNDA:5,_ZSteqIfLm16EEbRKSt5arrayIT_XT0_EES4_
FNDA:5,_ZSteqIfLm2EEbRKSt5arrayIT_XT0_EES4_
FNDA:3,_ZSteqIfLm3EEbRKSt5arrayIT_XT0_EES4_
FNDA:1,_ZSteqIfLm4EEbRKSt5arrayIT_XT0_EES4_
FNF:41
FNH:39
DA:126,5
DA:127,5
DA:131,34
DA:132,34
DA:136,5
DA:137,5
DA:141,20
DA:142,20
DA:187,0
DA:217,542
DA:219,542
DA:220,0
DA:222,0
DA:223,542
DA:227,294
DA:231,294
DA:232,0
DA:234,0
DA:235,0
DA:276,10
DA:277,10
DA:281,54
DA:282,54
DA:297,14
DA:298,14
LF:25
LH:19
end_of_record
TN:
SF:/nix/store/0vsyw5bhwmisszyfd1a0sdnwvnf4qa5a-gcc-13.3.0/include/c++/13.3.0/bits/alloc_traits.h
FN:481,482,_ZNSt16allocator_traitsISaISt10_List_nodeIN5boost10shared_ptrINS1_10test_tools9tt_detail28assertion_evaluation_contextEEEEEE8allocateERS8_m
FN:481,482,_ZNSt16allocator_traitsISaIcEE8allocateERS0_m
FN:516,517,_ZNSt16allocator_traitsISaISt10_List_nodeIN5boost10shared_ptrINS1_10test_tools9tt_detail28assertion_evaluation_contextEEEEEE10deallocateERS8_PS7_m
FN:516,517,_ZNSt16allocator_traitsISaIcEE10deallocateERS0_Pcm
FN:533,542,_ZNSt16allocator_traitsISaISt10_List_nodeIN5boost10shared_ptrINS1_10test_tools9tt_detail28assertion_evaluation_contextEEEEEE9constructIS6_JRKS6_EEEvRS8_PT_DpOT0_
FN:554,562,_ZNSt16allocator_traitsISaISt10_List_nodeIN5boost10shared_ptrINS1_10test_tools9tt_detail28assertion_evaluation_contextEEEEEE7destroyIS6_EEvRS8_PT_
FN:571,576,_ZNSt16allocator_traitsISaIcEE8max_sizeERKS0_
FN:587,588,_ZNSt16allocator_traitsISaISt10_List_nodeIN5boost10shared_ptrINS1_10test_tools9tt_detail28assertion_evaluation_contextEEEEEE37select_on_container_copy_constructionERKS8_
FN:748,759,_ZSt15__alloc_on_moveISaIcEEvRT_S2_
FNDA:3,_ZNSt16allocator_traitsISaISt10_List_nodeIN5boost10shared_ptrINS1_10test_tools9tt_detail28assertion_evaluation_contextEEEEEE8allocateERS8_m
FNDA:728,_ZNSt16allocator_traitsISaIcEE8allocateERS0_m
FNDA:3,_ZNSt16allocator_traitsISaISt10_List_nodeIN5boost10shared_ptrINS1_10test_tools9tt_detail28assertion_evaluation_contextEEEEEE10deallocateERS8_PS7_m
FNDA:71,_ZNSt16allocator_traitsISaIcEE10deallocateERS0_Pcm
FNDA:3,_ZNSt16allocator_traitsISaISt10_List_nodeIN5boost10shared_ptrINS1_10test_tools9tt_detail28assertion_evaluation_contextEEEEEE9constructIS6_JRKS6_EEEvRS8_PT_DpOT0_
FNDA:3,_ZNSt16allocator_traitsISaISt10_List_nodeIN5boost10shared_ptrINS1_10test_tools9tt_detail28assertion_evaluation_contextEEEEEE7destroyIS6_EEvRS8_PT_
FNDA:843,_ZNSt16allocator_traitsISaIcEE8max_sizeERKS0_
FNDA:3,_ZNSt16allocator_traitsISaISt10_List_nodeIN5boost10shared_ptrINS1_10test_tools9tt_detail28assertion_evaluation_contextEEEEEE37select_on_container_copy_constructionERKS8_
FNDA:45,_ZSt15__alloc_on_moveISaIcEEvRT_S2_
FNF:9
FNH:9
DA:481,731
DA:482,731
DA:516,74
DA:517,74
DA:533,3
DA:540,3
DA:542,3
DA:554,3
DA:560,3
DA:562,3
DA:571,843
DA:576,843
DA:587,3
DA:588,3
DA:748,45
DA:755,45
DA:759,45
LF:17
LH:17
end_of_record
TN:
SF:/nix/store/0vsyw5bhwmisszyfd1a0sdnwvnf4qa5a-gcc-13.3.0/include/c++/13.3.0/bits/allocated_ptr.h
FN:53,55,_ZNSt15__allocated_ptrISaISt10_List_nodeIN5boost10shared_ptrINS1_10test_tools9tt_detail28assertion_evaluation_contextEEEEEEC2ERS8_PS7_
FN:71,75,_ZNSt15__allocated_ptrISaISt10_List_nodeIN5boost10shared_ptrINS1_10test_tools9tt_detail28assertion_evaluation_contextEEEEEED2Ev
FN:79,82,_ZNSt15__allocated_ptrISaISt10_List_nodeIN5boost10shared_ptrINS1_10test_tools9tt_detail28assertion_evaluation_contextEEEEEEaSEDn
FNDA:3,_ZNSt15__allocated_ptrISaISt10_List_nodeIN5boost10shared_ptrINS1_10test_tools9tt_detail28assertion_evaluation_contextEEEEEEC2ERS8_PS7_
FNDA:3,_ZNSt15__allocated_ptrISaISt10_List_nodeIN5boost10shared_ptrINS1_10test_tools9tt_detail28assertion_evaluation_contextEEEEEED2Ev
FNDA:3,_ZNSt15__allocated_ptrISaISt10_List_nodeIN5boost10shared_ptrINS1_10test_tools9tt_detail28assertion_evaluation_contextEEEEEEaSEDn
FNF:3
FNH:3
DA:53,3
DA:54,3
DA:55,3
DA:71,3
DA:73,3
DA:74,0
DA:75,3
DA:79,3
DA:81,3
DA:82,3
LF:10
LH:9
end_of_record
TN:
SF:/nix/store/0vsyw5bhwmisszyfd1a0sdnwvnf4qa5a-gcc-13.3.0/include/c++/13.3.0/bits/allocator.h
FN:163,163,_ZNSaISt10_List_nodeIN5boost10shared_ptrINS0_10test_tools9tt_detail28assertion_evaluation_contextEEEEEC2Ev
FN:163,163,_ZNSaIcEC2Ev
FN:167,168,_ZNSaISt10_List_nodeIN5boost10shared_ptrINS0_10test_tools9tt_detail28assertion_evaluation_contextEEEEEC2ERKS7_
FN:167,168,_ZNSaIcEC2ERKS_
FN:184,184,_ZNSaISt10_List_nodeIN5boost10shared_ptrINS0_10test_tools9tt_detail28assertion_evaluation_contextEEEEED2Ev
FN:184,184,_ZNSaIcED2Ev
FN:189,198,_ZNSaISt10_List_nodeIN5boost10shared_ptrINS0_10test_tools9tt_detail28assertion_evaluation_contextEEEEE8allocateEm
FN:189,198,_ZNSaIcE8allocateEm
FN:203,211,_ZNSaISt10_List_nodeIN5boost10shared_ptrINS0_10test_tools9tt_detail28assertion_evaluation_contextEEEEE10deallocateEPS6_m
FN:203,211,_ZNSaIcE10deallocateEPcm
FNDA:3,_ZNSaISt10_List_nodeIN5boost10shared_ptrINS0_10test_tools9tt_detail28assertion_evaluation_contextEEEEEC2Ev
FNDA:45,_ZNSaIcEC2Ev
FNDA:6,_ZNSaISt10_List_nodeIN5boost10shared_ptrINS0_10test_tools9tt_detail28assertion_evaluation_contextEEEEEC2ERKS7_
FNDA:45,_ZNSaIcEC2ERKS_
FNDA:9,_ZNSaISt10_List_nodeIN5boost10shared_ptrINS0_10test_tools9tt_detail28assertion_evaluation_contextEEEEED2Ev
FNDA:144,_ZNSaIcED2Ev
FNDA:3,_ZNSaISt10_List_nodeIN5boost10shared_ptrINS0_10test_tools9tt_detail28assertion_evaluation_contextEEEEE8allocateEm
FNDA:728,_ZNSaIcE8allocateEm
FNDA:3,_ZNSaISt10_List_nodeIN5boost10shared_ptrINS0_10test_tools9tt_detail28assertion_evaluation_contextEEEEE10deallocateEPS6_m
FNDA:71,_ZNSaIcE10deallocateEPcm
FNF:10
FNH:10
DA:163,48
DA:167,51
DA:168,51
DA:184,153
DA:189,731
DA:198,731
DA:203,74
DA:210,74
DA:211,74
LF:9
LH:9
end_of_record
TN:
SF:/nix/store/0vsyw5bhwmisszyfd1a0sdnwvnf4qa5a-gcc-13.3.0/include/c++/13.3.0/bits/basic_string.h
FN:1071,1072,_ZNKSt7__cxx1112basic_stringIcSt11char_traitsIcESaIcEE4sizeEv
FN:1078,1079,_ZNKSt7__cxx1112basic_stringIcSt11char_traitsIcESaIcEE6lengthEv
FN:1084,1085,_ZNKSt7__cxx1112basic_stringIcSt11char_traitsIcESaIcEE8max_sizeEv
FN:1211,1212,_ZNSt7__cxx1112basic_stringIcSt11char_traitsIcESaIcEE5clearEv
FN:124,136,_ZNSt7__cxx1112basic_stringIcSt11char_traitsIcESaIcEE11_S_allocateERS3_m
FN:181,_ZNSt7__cxx1112basic_stringIcSt11char_traitsIcESaIcEE12_Alloc_hiderD2Ev
FN:188,189,_ZNSt7__cxx1112basic_stringIcSt11char_traitsIcESaIcEE12_Alloc_hiderC2EPcRKS3_
FN:192,193,_ZNSt7__cxx1112basic_stringIcSt11char_traitsIcESaIcEE12_Alloc_hiderC2EPcOS3_
FN:212,213,_ZNSt7__cxx1112basic_stringIcSt11char_traitsIcESaIcEE7_M_dataEPc
FN:217,218,_ZNSt7__cxx1112basic_stringIcSt11char_traitsIcESaIcEE9_M_lengthEm
FN:222,223,_ZNKSt7__cxx1112basic_stringIcSt11char_traitsIcESaIcEE7_M_dataEv
FN:227,230,_ZNSt7__cxx1112basic_stringIcSt11char_traitsIcESaIcEE13_M_local_dataEv
FN:238,241,_ZNKSt7__cxx1112basic_stringIcSt11char_traitsIcESaIcEE13_M_local_dataEv
FN:249,250,_ZNSt7__cxx1112basic_stringIcSt11char_traitsIcESaIcEE11_M_capacityEm
FN:254,258,_ZNSt7__cxx1112basic_stringIcSt11char_traitsIcESaIcEE13_M_set_lengthEm
FN:2595,2596,_ZNKSt7__cxx1112basic_stringIcSt11char_traitsIcESaIcEE5c_strEv
FN:262,271,_ZNKSt7__cxx1112basic_stringIcSt11char_traitsIcESaIcEE11_M_is_localEv
FN:280,284,_ZNSt7__cxx1112basic_stringIcSt11char_traitsIcESaIcEE10_M_disposeEv
FN:288,289,_ZNSt7__cxx1112basic_stringIcSt11char_traitsIcESaIcEE10_M_destroyEm
FN:336,337,_ZNSt7__cxx1112basic_stringIcSt11char_traitsIcESaIcEE16_M_get_allocatorEv
FN:341,342,_ZNKSt7__cxx1112basic_stringIcSt11char_traitsIcESaIcEE16_M_get_allocatorEv
FN:348,355,_ZNSt7__cxx1112basic_stringIcSt11char_traitsIcESaIcEE17_M_init_local_bufEv
FN:360,365,_ZNSt7__cxx1112basic_stringIcSt11char_traitsIcESaIcEE17_M_use_local_dataEv
FN:425,431,_ZNSt7__cxx1112basic_stringIcSt11char_traitsIcESaIcEE7_S_copyEPcPKcm
FN:482,484,_ZNSt7__cxx1112basic_stringIcSt11char_traitsIcESaIcEE13_S_copy_charsEPcPKcS7_
FN:522,528,_ZNSt7__cxx1112basic_stringIcSt11char_traitsIcESaIcEEC2Ev
FN:619,628,_ZNSt7__cxx1112basic_stringIcSt11char_traitsIcESaIcEEC2EPKcmRKS3_
FN:803,804,_ZNSt7__cxx1112basic_stringIcSt11char_traitsIcESaIcEED2Ev
FN:853,912,_ZNSt7__cxx1112basic_stringIcSt11char_traitsIcESaIcEEaSEOS4_
FNDA:54,_ZNKSt7__cxx1112basic_stringIcSt11char_traitsIcESaIcEE4sizeEv
FNDA:45,_ZNKSt7__cxx1112basic_stringIcSt11char_traitsIcESaIcEE6lengthEv
FNDA:843,_ZNKSt7__cxx1112basic_stringIcSt11char_traitsIcESaIcEE8max_sizeEv
FNDA:45,_ZNSt7__cxx1112basic_stringIcSt11char_traitsIcESaIcEE5clearEv
FNDA:728,_ZNSt7__cxx1112basic_stringIcSt11char_traitsIcESaIcEE11_S_allocateERS3_m
FNDA:99,_ZNSt7__cxx1112basic_stringIcSt11char_traitsIcESaIcEE12_Alloc_hiderD2Ev
FNDA:0,_ZNSt7__cxx1112basic_stringIcSt11char_traitsIcESaIcEE12_Alloc_hiderC2EPcRKS3_
FNDA:45,_ZNSt7__cxx1112basic_stringIcSt11char_traitsIcESaIcEE12_Alloc_hiderC2EPcOS3_
FNDA:90,_ZNSt7__cxx1112basic_stringIcSt11char_traitsIcESaIcEE7_M_dataEPc
FNDA:135,_ZNSt7__cxx1112basic_stringIcSt11char_traitsIcESaIcEE9_M_lengthEm
FNDA:1334,_ZNKSt7__cxx1112basic_stringIcSt11char_traitsIcESaIcEE7_M_dataEv
FNDA:90,_ZNSt7__cxx1112basic_stringIcSt11char_traitsIcESaIcEE13_M_local_dataEv
FNDA:1074,_ZNKSt7__cxx1112basic_stringIcSt11char_traitsIcESaIcEE13_M_local_dataEv
FNDA:45,_ZNSt7__cxx1112basic_stringIcSt11char_traitsIcESaIcEE11_M_capacityEm
FNDA:90,_ZNSt7__cxx1112basic_stringIcSt11char_traitsIcESaIcEE13_M_set_lengthEm
FNDA:54,_ZNKSt7__cxx1112basic_stringIcSt11char_traitsIcESaIcEE5c_strEv
FNDA:1074,_ZNKSt7__cxx1112basic_stringIcSt11char_traitsIcESaIcEE11_M_is_localEv
FNDA:939,_ZNSt7__cxx1112basic_stringIcSt11char_traitsIcESaIcEE10_M_disposeEv
FNDA:71,_ZNSt7__cxx1112basic_stringIcSt11char_traitsIcESaIcEE10_M_destroyEm
FNDA:889,_ZNSt7__cxx1112basic_stringIcSt11char_traitsIcESaIcEE16_M_get_allocatorEv
FNDA:843,_ZNKSt7__cxx1112basic_stringIcSt11char_traitsIcESaIcEE16_M_get_allocatorEv
FNDA:90,_ZNSt7__cxx1112basic_stringIcSt11char_traitsIcESaIcEE17_M_init_local_bufEv
FNDA:45,_ZNSt7__cxx1112basic_stringIcSt11char_traitsIcESaIcEE17_M_use_local_dataEv
FNDA:0,_ZNSt7__cxx1112basic_stringIcSt11char_traitsIcESaIcEE7_S_copyEPcPKcm
FNDA:0,_ZNSt7__cxx1112basic_stringIcSt11char_traitsIcESaIcEE13_S_copy_charsEPcPKcS7_
FNDA:45,_ZNSt7__cxx1112basic_stringIcSt11char_traitsIcESaIcEEC2Ev
FNDA:0,_ZNSt7__cxx1112basic_stringIcSt11char_traitsIcESaIcEEC2EPKcmRKS3_
FNDA:99,_ZNSt7__cxx1112basic_stringIcSt11char_traitsIcESaIcEED2Ev
FNDA:45,_ZNSt7__cxx1112basic_stringIcSt11char_traitsIcESaIcEEaSEOS4_
FNF:29
FNH:25
DA:124,728
DA:126,728
DA:136,728
DA:188,0
DA:189,0
DA:192,45
DA:193,45
DA:212,90
DA:213,90
DA:217,135
DA:218,135
DA:222,1334
DA:223,1334
DA:227,90
DA:230,90
DA:238,1074
DA:241,1074
DA:249,45
DA:250,45
DA:254,90
DA:256,90
DA:257,90
DA:258,90
DA:262,1074
DA:264,1074
DA:266,958
DA:267,0
DA:268,958
DA:270,116
DA:271,1074
DA:280,939
DA:282,939
DA:283,71
DA:284,939
DA:288,71
DA:289,71
DA:336,889
DA:337,889
DA:341,843
DA:342,843
DA:348,90
DA:355,90
DA:360,45
DA:363,45
DA:365,45
DA:425,0
DA:427,0
DA:428,0
DA:430,0
DA:431,0
DA:482,0
DA:484,0
DA:522,45
DA:524,45
DA:526,45
DA:527,45
DA:528,45
DA:619,0
DA:621,0
DA:624,0
DA:625,0
DA:627,0
DA:628,0
DA:803,99
DA:804,99
DA:853,45
DA:856,45
DA:858,45
DA:859,45
DA:862,0
DA:863,0
DA:864,0
DA:865,0
DA:867,45
DA:869,45
DA:874,0
DA:876,0
DA:877,0
DA:878,0
DA:879,0
DA:880,0
DA:884,45
DA:886,45
DA:891,0
DA:892,0
DA:896,0
DA:898,45
DA:899,45
DA:900,45
DA:901,45
DA:903,0
DA:904,0
DA:905,0
DA:907,45
DA:911,45
DA:912,45
DA:1071,54
DA:1072,54
DA:1078,45
DA:1079,45
DA:1084,843
DA:1085,843
DA:1211,45
DA:1212,45
DA:2595,54
DA:2596,54
LF:106
LH:74
end_of_record
TN:
SF:/nix/store/0vsyw5bhwmisszyfd1a0sdnwvnf4qa5a-gcc-13.3.0/include/c++/13.3.0/bits/basic_string.tcc
FN:139,159,_ZNSt7__cxx1112basic_stringIcSt11char_traitsIcESaIcEE9_M_createERmm
FN:222,233,_ZNSt7__cxx1112basic_stringIcSt11char_traitsIcESaIcEE12_M_constructIPKcEEvT_S8_St20forward_iterator_tag
FN:239,239,_ZZNSt7__cxx1112basic_stringIcSt11char_traitsIcESaIcEE12_M_constructIPKcEEvT_S8_St20forward_iterator_tagEN6_GuardC2EPS4_
FN:242,252,_ZZNSt7__cxx1112basic_stringIcSt11char_traitsIcESaIcEE12_M_constructIPKcEEvT_S8_St20forward_iterator_tagEN6_GuardD2Ev
FNDA:728,_ZNSt7__cxx1112basic_stringIcSt11char_traitsIcESaIcEE9_M_createERmm
FNDA:0,_ZNSt7__cxx1112basic_stringIcSt11char_traitsIcESaIcEE12_M_constructIPKcEEvT_S8_St20forward_iterator_tag
FNDA:0,_ZZNSt7__cxx1112basic_stringIcSt11char_traitsIcESaIcEE12_M_constructIPKcEEvT_S8_St20forward_iterator_tagEN6_GuardC2EPS4_
FNDA:0,_ZZNSt7__cxx1112basic_stringIcSt11char_traitsIcESaIcEE12_M_constructIPKcEEvT_S8_St20forward_iterator_tagEN6_GuardD2Ev
FNF:4
FNH:1
DA:139,728
DA:143,728
DA:144,0
DA:149,728
DA:151,115
DA:153,115
DA:154,0
DA:155,115
DA:159,728
DA:222,0
DA:225,0
DA:227,0
DA:229,0
DA:230,0
DA:231,0
DA:233,0
DA:239,0
DA:242,0
DA:245,0
DA:247,0
DA:249,0
DA:251,0
DA:252,0
LF:23
LH:7
end_of_record
TN:
SF:/nix/store/0vsyw5bhwmisszyfd1a0sdnwvnf4qa5a-gcc-13.3.0/include/c++/13.3.0/bits/char_traits.h
FN:351,359,_ZNSt11char_traitsIcE6assignERcRKc
FN:427,436,_ZNSt11char_traitsIcE4copyEPcPKcm
FNDA:90,_ZNSt11char_traitsIcE6assignERcRKc
FNDA:0,_ZNSt11char_traitsIcE4copyEPcPKcm
FNF:2
FNH:1
DA:351,90
DA:358,90
DA:359,90
DA:427,0
DA:429,0
DA:430,0
DA:435,0
DA:436,0
LF:8
LH:3
end_of_record
TN:
SF:/nix/store/0vsyw5bhwmisszyfd1a0sdnwvnf4qa5a-gcc-13.3.0/include/c++/13.3.0/bits/ios_base.h
FN:741,745,_ZNSt8ios_base9precisionEl
FNDA:0,_ZNSt8ios_base9precisionEl
FNF:1
FNH:0
DA:741,0
DA:743,0
DA:744,0
DA:745,0
LF:4
LH:0
end_of_record
TN:
SF:/nix/store/0vsyw5bhwmisszyfd1a0sdnwvnf4qa5a-gcc-13.3.0/include/c++/13.3.0/bits/list.tcc
FN:67,83,_ZNSt7__cxx1110_List_baseIN5boost10shared_ptrINS1_10test_tools9tt_detail28assertion_evaluation_contextEEESaIS6_EE8_M_clearEv
FNDA:6,_ZNSt7__cxx1110_List_baseIN5boost10shared_ptrINS1_10test_tools9tt_detail28assertion_evaluation_contextEEESaIS6_EE8_M_clearEv
FNF:1
FNH:1
DA:67,6
DA:70,6
DA:71,9
DA:73,3
DA:74,3
DA:75,3
DA:77,3
DA:81,3
DA:83,6
LF:9
LH:9
end_of_record
TN:
SF:/nix/store/0vsyw5bhwmisszyfd1a0sdnwvnf4qa5a-gcc-13.3.0/include/c++/13.3.0/bits/move.h
FN:189,200,_ZSt4swapIPN5boost23basic_wrap_stringstreamIcEEENSt9enable_ifIXsr6__and_ISt6__not_ISt15__is_tuple_likeIT_EESt21is_move_constructibleIS7_ESt18is_move_assignableIS7_EEE5valueEvE4typeERS7_SG_
FNDA:0,_ZSt4swapIPN5boost23basic_wrap_stringstreamIcEEENSt9enable_ifIXsr6__and_ISt6__not_ISt15__is_tuple_likeIT_EESt21is_move_constructibleIS7_ESt18is_move_assignableIS7_EEE5valueEvE4typeERS7_SG_
FNF:1
FNH:0
DA:189,0
DA:197,0
DA:198,0
DA:199,0
DA:200,0
LF:5
LH:0
end_of_record
TN:
SF:/nix/store/0vsyw5bhwmisszyfd1a0sdnwvnf4qa5a-gcc-13.3.0/include/c++/13.3.0/bits/new_allocator.h
FN:126,151,_ZNSt15__new_allocatorISt10_List_nodeIN5boost10shared_ptrINS1_10test_tools9tt_detail28assertion_evaluation_contextEEEEE8allocateEmPKv
FN:126,151,_ZNSt15__new_allocatorIcE8allocateEmPKv
FN:156,173,_ZNSt15__new_allocatorISt10_List_nodeIN5boost10shared_ptrINS1_10test_tools9tt_detail28assertion_evaluation_contextEEEEE10deallocateEPS7_m
FN:156,173,_ZNSt15__new_allocatorIcE10deallocateEPcm
FN:230,233,_ZNKSt15__new_allocatorISt10_List_nodeIN5boost10shared_ptrINS1_10test_tools9tt_detail28assertion_evaluation_contextEEEEE11_M_max_sizeEv
FN:230,233,_ZNKSt15__new_allocatorIcE11_M_max_sizeEv
FN:88,88,_ZNSt15__new_allocatorISt10_List_nodeIN5boost10shared_ptrINS1_10test_tools9tt_detail28assertion_evaluation_contextEEEEEC2Ev
FN:88,88,_ZNSt15__new_allocatorIcEC2Ev
FN:92,92,_ZNSt15__new_allocatorISt10_List_nodeIN5boost10shared_ptrINS1_10test_tools9tt_detail28assertion_evaluation_contextEEEEEC2ERKS8_
FN:92,92,_ZNSt15__new_allocatorIcEC2ERKS0_
FNDA:3,_ZNSt15__new_allocatorISt10_List_nodeIN5boost10shared_ptrINS1_10test_tools9tt_detail28assertion_evaluation_contextEEEEE8allocateEmPKv
FNDA:728,_ZNSt15__new_allocatorIcE8allocateEmPKv
FNDA:3,_ZNSt15__new_allocatorISt10_List_nodeIN5boost10shared_ptrINS1_10test_tools9tt_detail28assertion_evaluation_contextEEEEE10deallocateEPS7_m
FNDA:71,_ZNSt15__new_allocatorIcE10deallocateEPcm
FNDA:3,_ZNKSt15__new_allocatorISt10_List_nodeIN5boost10shared_ptrINS1_10test_tools9tt_detail28assertion_evaluation_contextEEEEE11_M_max_sizeEv
FNDA:728,_ZNKSt15__new_allocatorIcE11_M_max_sizeEv
FNDA:3,_ZNSt15__new_allocatorISt10_List_nodeIN5boost10shared_ptrINS1_10test_tools9tt_detail28assertion_evaluation_contextEEEEEC2Ev
FNDA:45,_ZNSt15__new_allocatorIcEC2Ev
FNDA:6,_ZNSt15__new_allocatorISt10_List_nodeIN5boost10shared_ptrINS1_10test_tools9tt_detail28assertion_evaluation_contextEEEEEC2ERKS8_
FNDA:45,_ZNSt15__new_allocatorIcEC2ERKS0_
FNF:10
FNH:10
DA:88,48
DA:92,51
DA:126,731
DA:134,731
DA:138,0
DA:139,0
DA:140,0
DA:151,731
DA:156,74
DA:172,74
DA:173,74
DA:230,731
DA:233,731
LF:13
LH:10
end_of_record
TN:
SF:/nix/store/0vsyw5bhwmisszyfd1a0sdnwvnf4qa5a-gcc-13.3.0/include/c++/13.3.0/bits/ptr_traits.h
FN:141,142,_ZNSt19__ptr_traits_ptr_toIPKcS0_Lb0EE10pointer_toERS0_
FN:141,142,_ZNSt19__ptr_traits_ptr_toIPccLb0EE10pointer_toERc
FNDA:1074,_ZNSt19__ptr_traits_ptr_toIPKcS0_Lb0EE10pointer_toERS0_
FNDA:90,_ZNSt19__ptr_traits_ptr_toIPccLb0EE10pointer_toERc
FNF:2
FNH:2
DA:141,1164
DA:142,1164
LF:2
LH:2
end_of_record
TN:
SF:/nix/store/0vsyw5bhwmisszyfd1a0sdnwvnf4qa5a-gcc-13.3.0/include/c++/13.3.0/bits/stl_algobase.h
FN:1167,1173,_ZNSt7__equalILb0EE5equalIPKfS3_EEbT_S4_T0_
FN:1213,1219,_ZSt12__equal_aux1IPKfS1_EbT_S2_T0_
FN:1225,1229,_ZSt11__equal_auxIPKfS1_EbT_S2_T0_
FN:1547,1557,_ZSt5equalIPKfS1_EbT_S2_T0_
FN:233,241,_ZSt3minIdERKT_S2_S2_
FN:233,241,_ZSt3minIfERKT_S2_S2_
FN:257,265,_ZSt3maxIdERKT_S2_S2_
FN:257,265,_ZSt3maxIfERKT_S2_S2_
FN:316,318,_ZSt12__niter_baseIPKfET_S2_
FNDA:14,_ZNSt7__equalILb0EE5equalIPKfS3_EEbT_S4_T0_
FNDA:14,_ZSt12__equal_aux1IPKfS1_EbT_S2_T0_
FNDA:14,_ZSt11__equal_auxIPKfS1_EbT_S2_T0_
FNDA:14,_ZSt5equalIPKfS1_EbT_S2_T0_
FNDA:0,_ZSt3minIdERKT_S2_S2_
FNDA:3,_ZSt3minIfERKT_S2_S2_
FNDA:0,_ZSt3maxIdERKT_S2_S2_
FNDA:3,_ZSt3maxIfERKT_S2_S2_
FNDA:42,_ZSt12__niter_baseIPKfET_S2_
FNF:9
FNH:7
DA:233,3
DA:238,3
DA:239,3
DA:240,0
DA:241,3
DA:257,3
DA:262,3
DA:263,0
DA:264,3
DA:265,3
DA:316,42
DA:318,42
DA:1167,14
DA:1169,117
DA:1170,103
DA:1171,0
DA:1172,14
DA:1173,14
DA:1213,14
DA:1216,14
DA:1219,14
DA:1225,14
DA:1227,28
DA:1228,14
DA:1229,14
DA:1547,14
DA:1557,14
LF:27
LH:24
end_of_record
TN:
SF:/nix/store/0vsyw5bhwmisszyfd1a0sdnwvnf4qa5a-gcc-13.3.0/include/c++/13.3.0/bits/stl_construct.h
FN:80,89,_ZSt10destroy_atIN5boost10shared_ptrINS0_10test_tools9tt_detail28assertion_evaluation_contextEEEEvPT_
FN:94,97,_ZSt12construct_atIN5boost10shared_ptrINS0_10test_tools9tt_detail28assertion_evaluation_contextEEEJRKS5_EEDTgsnwcvPvLi0E_T_pispclsr3stdE7declvalIT0_EEEEPS9_DpOSA_
FNDA:3,_ZSt10destroy_atIN5boost10shared_ptrINS0_10test_tools9tt_detail28assertion_evaluation_contextEEEEvPT_
FNDA:3,_ZSt12construct_atIN5boost10shared_ptrINS0_10test_tools9tt_detail28assertion_evaluation_contextEEEJRKS5_EEDTgsnwcvPvLi0E_T_pispclsr3stdE7declvalIT0_EEEEPS9_DpOSA_
FNF:2
FNH:2
DA:80,3
DA:88,3
DA:89,3
DA:94,3
DA:97,3
LF:5
LH:5
end_of_record
TN:
SF:/nix/store/0vsyw5bhwmisszyfd1a0sdnwvnf4qa5a-gcc-13.3.0/include/c++/13.3.0/bits/stl_iterator_base_funcs.h
FN:100,106,_ZSt10__distanceIPKcENSt15iterator_traitsIT_E15difference_typeES3_S3_St26random_access_iterator_tag
FN:148,152,_ZSt8distanceIPKcENSt15iterator_traitsIT_E15difference_typeES3_S3_
FNDA:0,_ZSt10__distanceIPKcENSt15iterator_traitsIT_E15difference_typeES3_S3_St26random_access_iterator_tag
FNDA:0,_ZSt8distanceIPKcENSt15iterator_traitsIT_E15difference_typeES3_S3_
FNF:2
FNH:0
DA:100,0
DA:106,0
DA:148,0
DA:151,0
DA:152,0
LF:5
LH:0
end_of_record
TN:
SF:/nix/store/0vsyw5bhwmisszyfd1a0sdnwvnf4qa5a-gcc-13.3.0/include/c++/13.3.0/bits/stl_iterator_base_types.h
FN:239,240,_ZSt19__iterator_categoryIPKcENSt15iterator_traitsIT_E17iterator_categoryERKS3_
FNDA:0,_ZSt19__iterator_categoryIPKcENSt15iterator_traitsIT_E17iterator_categoryERKS3_
FNF:1
FNH:0
DA:239,0
DA:240,0
LF:2
LH:0
end_of_record
TN:
SF:/nix/store/0vsyw5bhwmisszyfd1a0sdnwvnf4qa5a-gcc-13.3.0/include/c++/13.3.0/bits/stl_list.h
FN:1032,1033,_ZNKSt7__cxx114listIN5boost10shared_ptrINS1_10test_tools9tt_detail28assertion_evaluation_contextEEESaIS6_EE5beginEv
FN:1042,1043,_ZNSt7__cxx114listIN5boost10shared_ptrINS1_10test_tools9tt_detail28assertion_evaluation_contextEEESaIS6_EE3endEv
FN:1052,1053,_ZNKSt7__cxx114listIN5boost10shared_ptrINS1_10test_tools9tt_detail28assertion_evaluation_contextEEESaIS6_EE3endEv
FN:110,111,_ZNSt8__detail17_List_node_headerC2Ev
FN:1223,1227,_ZNSt7__cxx114listIN5boost10shared_ptrINS1_10test_tools9tt_detail28assertion_evaluation_contextEEESaIS6_EE4backEv
FN:1305,1306,_ZNSt7__cxx114listIN5boost10shared_ptrINS1_10test_tools9tt_detail28assertion_evaluation_contextEEESaIS6_EE9push_backERKS6_
FN:1319,1323,_ZNSt7__cxx114listIN5boost10shared_ptrINS1_10test_tools9tt_detail28assertion_evaluation_contextEEESaIS6_EE12emplace_backIJRKS6_EEERS6_DpOT_
FN:150,156,_ZNSt8__detail17_List_node_header7_M_initEv
FN:1929,1938,_ZNSt7__cxx114listIN5boost10shared_ptrINS1_10test_tools9tt_detail28assertion_evaluation_contextEEESaIS6_EE22_M_initialize_dispatchISt20_List_const_iteratorIS6_EEEvT_SC_St12__false_type
FN:2003,2008,_ZNSt7__cxx114listIN5boost10shared_ptrINS1_10test_tools9tt_detail28assertion_evaluation_contextEEESaIS6_EE9_M_insertIJRKS6_EEEvSt14_List_iteratorIS6_EDpOT_
FN:238,238,_ZNSt10_List_nodeIN5boost10shared_ptrINS0_10test_tools9tt_detail28assertion_evaluation_contextEEEE9_M_valptrEv
FN:239,239,_ZNKSt10_List_nodeIN5boost10shared_ptrINS0_10test_tools9tt_detail28assertion_evaluation_contextEEEE9_M_valptrEv
FN:268,269,_ZNSt14_List_iteratorIN5boost10shared_ptrINS0_10test_tools9tt_detail28assertion_evaluation_contextEEEEC2EPNSt8__detail15_List_node_baseE
FN:278,279,_ZNKSt14_List_iteratorIN5boost10shared_ptrINS0_10test_tools9tt_detail28assertion_evaluation_contextEEEEdeEv
FN:302,305,_ZNSt14_List_iteratorIN5boost10shared_ptrINS0_10test_tools9tt_detail28assertion_evaluation_contextEEEEmmEv
FN:354,356,_ZNSt20_List_const_iteratorIN5boost10shared_ptrINS0_10test_tools9tt_detail28assertion_evaluation_contextEEEEC2EPKNSt8__detail15_List_node_baseE
FN:368,369,_ZNKSt20_List_const_iteratorIN5boost10shared_ptrINS0_10test_tools9tt_detail28assertion_evaluation_contextEEEEdeEv
FN:377,380,_ZNSt20_List_const_iteratorIN5boost10shared_ptrINS0_10test_tools9tt_detail28assertion_evaluation_contextEEEEppEv
FN:408,409,_ZSteqRKSt20_List_const_iteratorIN5boost10shared_ptrINS0_10test_tools9tt_detail28assertion_evaluation_contextEEEES8_
FN:450,_ZNSt7__cxx1110_List_baseIN5boost10shared_ptrINS1_10test_tools9tt_detail28assertion_evaluation_contextEEESaIS6_EE10_List_implD2Ev
FN:455,458,_ZNSt7__cxx1110_List_baseIN5boost10shared_ptrINS1_10test_tools9tt_detail28assertion_evaluation_contextEEESaIS6_EE10_List_implC2Ev
FN:471,473,_ZNSt7__cxx1110_List_baseIN5boost10shared_ptrINS1_10test_tools9tt_detail28assertion_evaluation_contextEEESaIS6_EE10_List_implC2EOSaISt10_List_nodeIS6_EE
FN:484,484,_ZNSt7__cxx1110_List_baseIN5boost10shared_ptrINS1_10test_tools9tt_detail28assertion_evaluation_contextEEESaIS6_EE11_M_inc_sizeEm
FN:517,518,_ZNSt7__cxx1110_List_baseIN5boost10shared_ptrINS1_10test_tools9tt_detail28assertion_evaluation_contextEEESaIS6_EE11_M_get_nodeEv
FN:521,522,_ZNSt7__cxx1110_List_baseIN5boost10shared_ptrINS1_10test_tools9tt_detail28assertion_evaluation_contextEEESaIS6_EE11_M_put_nodeEPSt10_List_nodeIS6_E
FN:528,529,_ZNSt7__cxx1110_List_baseIN5boost10shared_ptrINS1_10test_tools9tt_detail28assertion_evaluation_contextEEESaIS6_EE21_M_get_Node_allocatorEv
FN:532,533,_ZNKSt7__cxx1110_List_baseIN5boost10shared_ptrINS1_10test_tools9tt_detail28assertion_evaluation_contextEEESaIS6_EE21_M_get_Node_allocatorEv
FN:536,536,_ZNSt7__cxx1110_List_baseIN5boost10shared_ptrINS1_10test_tools9tt_detail28assertion_evaluation_contextEEESaIS6_EEC2Ev
FN:564,566,_ZNSt7__cxx1110_List_baseIN5boost10shared_ptrINS1_10test_tools9tt_detail28assertion_evaluation_contextEEESaIS6_EEC2EOSaISt10_List_nodeIS6_EE
FN:574,575,_ZNSt7__cxx1110_List_baseIN5boost10shared_ptrINS1_10test_tools9tt_detail28assertion_evaluation_contextEEESaIS6_EED2Ev
FN:708,717,_ZNSt7__cxx114listIN5boost10shared_ptrINS1_10test_tools9tt_detail28assertion_evaluation_contextEEESaIS6_EE14_M_create_nodeIJRKS6_EEEPSt10_List_nodeIS6_EDpOT_
FN:749,749,_ZNSt7__cxx114listIN5boost10shared_ptrINS1_10test_tools9tt_detail28assertion_evaluation_contextEEESaIS6_EEC2Ev
FN:811,814,_ZNSt7__cxx114listIN5boost10shared_ptrINS1_10test_tools9tt_detail28assertion_evaluation_contextEEESaIS6_EEC2ERKS8_
FN:903,903,_ZNSt7__cxx114listIN5boost10shared_ptrINS1_10test_tools9tt_detail28assertion_evaluation_contextEEESaIS6_EED2Ev
FNDA:3,_ZNKSt7__cxx114listIN5boost10shared_ptrINS1_10test_tools9tt_detail28assertion_evaluation_contextEEESaIS6_EE5beginEv
FNDA:3,_ZNSt7__cxx114listIN5boost10shared_ptrINS1_10test_tools9tt_detail28assertion_evaluation_contextEEESaIS6_EE3endEv
FNDA:3,_ZNKSt7__cxx114listIN5boost10shared_ptrINS1_10test_tools9tt_detail28assertion_evaluation_contextEEESaIS6_EE3endEv
FNDA:6,_ZNSt8__detail17_List_node_headerC2Ev
FNDA:0,_ZNSt7__cxx114listIN5boost10shared_ptrINS1_10test_tools9tt_detail28assertion_evaluation_contextEEESaIS6_EE4backEv
FNDA:3,_ZNSt7__cxx114listIN5boost10shared_ptrINS1_10test_tools9tt_detail28assertion_evaluation_contextEEESaIS6_EE9push_backERKS6_
FNDA:0,_ZNSt7__cxx114listIN5boost10shared_ptrINS1_10test_tools9tt_detail28assertion_evaluation_contextEEESaIS6_EE12emplace_backIJRKS6_EEERS6_DpOT_
FNDA:6,_ZNSt8__detail17_List_node_header7_M_initEv
FNDA:3,_ZNSt7__cxx114listIN5boost10shared_ptrINS1_10test_tools9tt_detail28assertion_evaluation_contextEEESaIS6_EE22_M_initialize_dispatchISt20_List_const_iteratorIS6_EEEvT_SC_St12__false_type
FNDA:3,_ZNSt7__cxx114listIN5boost10shared_ptrINS1_10test_tools9tt_detail28assertion_evaluation_contextEEESaIS6_EE9_M_insertIJRKS6_EEEvSt14_List_iteratorIS6_EDpOT_
FNDA:6,_ZNSt10_List_nodeIN5boost10shared_ptrINS0_10test_tools9tt_detail28assertion_evaluation_contextEEEE9_M_valptrEv
FNDA:0,_ZNKSt10_List_nodeIN5boost10shared_ptrINS0_10test_tools9tt_detail28assertion_evaluation_contextEEEE9_M_valptrEv
FNDA:3,_ZNSt14_List_iteratorIN5boost10shared_ptrINS0_10test_tools9tt_detail28assertion_evaluation_contextEEEEC2EPNSt8__detail15_List_node_baseE
FNDA:0,_ZNKSt14_List_iteratorIN5boost10shared_ptrINS0_10test_tools9tt_detail28assertion_evaluation_contextEEEEdeEv
FNDA:0,_ZNSt14_List_iteratorIN5boost10shared_ptrINS0_10test_tools9tt_detail28assertion_evaluation_contextEEEEmmEv
FNDA:6,_ZNSt20_List_const_iteratorIN5boost10shared_ptrINS0_10test_tools9tt_detail28assertion_evaluation_contextEEEEC2EPKNSt8__detail15_List_node_baseE
FNDA:0,_ZNKSt20_List_const_iteratorIN5boost10shared_ptrINS0_10test_tools9tt_detail28assertion_evaluation_contextEEEEdeEv
FNDA:0,_ZNSt20_List_const_iteratorIN5boost10shared_ptrINS0_10test_tools9tt_detail28assertion_evaluation_contextEEEEppEv
FNDA:3,_ZSteqRKSt20_List_const_iteratorIN5boost10shared_ptrINS0_10test_tools9tt_detail28assertion_evaluation_contextEEEES8_
FNDA:6,_ZNSt7__cxx1110_List_baseIN5boost10shared_ptrINS1_10test_tools9tt_detail28assertion_evaluation_contextEEESaIS6_EE10_List_implD2Ev
FNDA:3,_ZNSt7__cxx1110_List_baseIN5boost10shared_ptrINS1_10test_tools9tt_detail28assertion_evaluation_contextEEESaIS6_EE10_List_implC2Ev
FNDA:3,_ZNSt7__cxx1110_List_baseIN5boost10shared_ptrINS1_10test_tools9tt_detail28assertion_evaluation_contextEEESaIS6_EE10_List_implC2EOSaISt10_List_nodeIS6_EE
FNDA:3,_ZNSt7__cxx1110_List_baseIN5boost10shared_ptrINS1_10test_tools9tt_detail28assertion_evaluation_contextEEESaIS6_EE11_M_inc_sizeEm
FNDA:3,_ZNSt7__cxx1110_List_baseIN5boost10shared_ptrINS1_10test_tools9tt_detail28assertion_evaluation_contextEEESaIS6_EE11_M_get_nodeEv
FNDA:3,_ZNSt7__cxx1110_List_baseIN5boost10shared_ptrINS1_10test_tools9tt_detail28assertion_evaluation_contextEEESaIS6_EE11_M_put_nodeEPSt10_List_nodeIS6_E
FNDA:6,_ZNSt7__cxx1110_List_baseIN5boost10shared_ptrINS1_10test_tools9tt_detail28assertion_evaluation_contextEEESaIS6_EE21_M_get_Node_allocatorEv
FNDA:3,_ZNKSt7__cxx1110_List_baseIN5boost10shared_ptrINS1_10test_tools9tt_detail28assertion_evaluation_contextEEESaIS6_EE21_M_get_Node_allocatorEv
FNDA:3,_ZNSt7__cxx1110_List_baseIN5boost10shared_ptrINS1_10test_tools9tt_detail28assertion_evaluation_contextEEESaIS6_EEC2Ev
FNDA:3,_ZNSt7__cxx1110_List_baseIN5boost10shared_ptrINS1_10test_tools9tt_detail28assertion_evaluation_contextEEESaIS6_EEC2EOSaISt10_List_nodeIS6_EE
FNDA:6,_ZNSt7__cxx1110_List_baseIN5boost10shared_ptrINS1_10test_tools9tt_detail28assertion_evaluation_contextEEESaIS6_EED2Ev
FNDA:3,_ZNSt7__cxx114listIN5boost10shared_ptrINS1_10test_tools9tt_detail28assertion_evaluation_contextEEESaIS6_EE14_M_create_nodeIJRKS6_EEEPSt10_List_nodeIS6_EDpOT_
FNDA:3,_ZNSt7__cxx114listIN5boost10shared_ptrINS1_10test_tools9tt_detail28assertion_evaluation_contextEEESaIS6_EEC2Ev
FNDA:3,_ZNSt7__cxx114listIN5boost10shared_ptrINS1_10test_tools9tt_detail28assertion_evaluation_contextEEESaIS6_EEC2ERKS8_
FNDA:6,_ZNSt7__cxx114listIN5boost10shared_ptrINS1_10test_tools9tt_detail28assertion_evaluation_contextEEESaIS6_EED2Ev
FNF:34
FNH:27
DA:110,6
DA:111,6
DA:150,6
DA:152,6
DA:154,6
DA:156,6
DA:238,6
DA:239,0
DA:268,3
DA:269,3
DA:278,0
DA:279,0
DA:302,0
DA:304,0
DA:305,0
DA:354,6
DA:356,6
DA:368,0
DA:369,0
DA:377,0
DA:379,0
DA:380,0
DA:408,3
DA:409,3
DA:455,6
DA:457,3
DA:458,3
DA:471,6
DA:472,3
DA:473,3
DA:484,3
DA:517,3
DA:518,3
DA:521,3
DA:522,3
DA:528,6
DA:529,6
DA:532,3
DA:533,3
DA:536,3
DA:564,3
DA:565,3
DA:566,3
DA:574,6
DA:575,6
DA:708,3
DA:710,3
DA:711,3
DA:712,3
DA:713,6
DA:714,3
DA:715,3
DA:716,3
DA:717,3
DA:749,3
DA:811,3
DA:812,3
DA:813,3
DA:814,3
DA:903,6
DA:1032,3
DA:1033,3
DA:1042,3
DA:1043,3
DA:1052,3
DA:1053,3
DA:1223,0
DA:1225,0
DA:1226,0
DA:1227,0
DA:1305,3
DA:1306,3
DA:1319,0
DA:1321,0
DA:1323,0
DA:1929,3
DA:1932,3
DA:1934,0
DA:1938,3
DA:2003,3
DA:2005,3
DA:2006,3
DA:2007,3
DA:2008,3
LF:84
LH:65
end_of_record
TN:
SF:/nix/store/0vsyw5bhwmisszyfd1a0sdnwvnf4qa5a-gcc-13.3.0/include/c++/13.3.0/cmath
FN:177,178,_ZSt3cosf
FN:400,401,_ZSt3sinf
FN:438,439,_ZSt4sqrtf
FNDA:0,_ZSt3cosf
FNDA:0,_ZSt3sinf
FNDA:6,_ZSt4sqrtf
FNF:3
FNH:1
DA:177,0
DA:178,0
DA:400,0
DA:401,0
DA:438,6
DA:439,6
LF:6
LH:2
end_of_record
TN:
SF:/nix/store/0vsyw5bhwmisszyfd1a0sdnwvnf4qa5a-gcc-13.3.0/include/c++/13.3.0/ext/aligned_buffer.h
FN:64,65,_ZN9__gnu_cxx16__aligned_membufIN5boost10shared_ptrINS1_10test_tools9tt_detail28assertion_evaluation_contextEEEE7_M_addrEv
FN:68,69,_ZNK9__gnu_cxx16__aligned_membufIN5boost10shared_ptrINS1_10test_tools9tt_detail28assertion_evaluation_contextEEEE7_M_addrEv
FN:72,73,_ZN9__gnu_cxx16__aligned_membufIN5boost10shared_ptrINS1_10test_tools9tt_detail28assertion_evaluation_contextEEEE6_M_ptrEv
FN:76,77,_ZNK9__gnu_cxx16__aligned_membufIN5boost10shared_ptrINS1_10test_tools9tt_detail28assertion_evaluation_contextEEEE6_M_ptrEv
FNDA:6,_ZN9__gnu_cxx16__aligned_membufIN5boost10shared_ptrINS1_10test_tools9tt_detail28assertion_evaluation_contextEEEE7_M_addrEv
FNDA:0,_ZNK9__gnu_cxx16__aligned_membufIN5boost10shared_ptrINS1_10test_tools9tt_detail28assertion_evaluation_contextEEEE7_M_addrEv
FNDA:6,_ZN9__gnu_cxx16__aligned_membufIN5boost10shared_ptrINS1_10test_tools9tt_detail28assertion_evaluation_contextEEEE6_M_ptrEv
FNDA:0,_ZNK9__gnu_cxx16__aligned_membufIN5boost10shared_ptrINS1_10test_tools9tt_detail28assertion_evaluation_contextEEEE6_M_ptrEv
FNF:4
FNH:2
DA:64,6
DA:65,6
DA:68,0
DA:69,0
DA:72,6
DA:73,6
DA:76,0
DA:77,0
LF:8
LH:4
end_of_record
TN:
SF:/nix/store/0vsyw5bhwmisszyfd1a0sdnwvnf4qa5a-gcc-13.3.0/include/c++/13.3.0/ext/alloc_traits.h
FN:97,98,_ZN9__gnu_cxx14__alloc_traitsISaISt10_List_nodeIN5boost10shared_ptrINS2_10test_tools9tt_detail28assertion_evaluation_contextEEEEES8_E17_S_select_on_copyERKS9_
FNDA:3,_ZN9__gnu_cxx14__alloc_traitsISaISt10_List_nodeIN5boost10shared_ptrINS2_10test_tools9tt_detail28assertion_evaluation_contextEEEEES8_E17_S_select_on_copyERKS9_
FNF:1
FNH:1
DA:97,3
DA:98,3
LF:2
LH:2
end_of_record
TN:
SF:/nix/store/0vsyw5bhwmisszyfd1a0sdnwvnf4qa5a-gcc-13.3.0/include/c++/13.3.0/limits
FN:1675,1675,_ZNSt14numeric_limitsIfE3minEv
FN:1678,1678,_ZNSt14numeric_limitsIfE3maxEv
FN:1716,1716,_ZNSt14numeric_limitsIfE8infinityEv
FN:1750,1750,_ZNSt14numeric_limitsIdE3minEv
FN:1753,1753,_ZNSt14numeric_limitsIdE3maxEv
FN:1791,1791,_ZNSt14numeric_limitsIdE8infinityEv
FNDA:6,_ZNSt14numeric_limitsIfE3minEv
FNDA:3,_ZNSt14numeric_limitsIfE3maxEv
FNDA:6,_ZNSt14numeric_limitsIfE8infinityEv
FNDA:0,_ZNSt14numeric_limitsIdE3minEv
FNDA:0,_ZNSt14numeric_limitsIdE3maxEv
FNDA:0,_ZNSt14numeric_limitsIdE8infinityEv
FNF:6
FNH:3
DA:1675,6
DA:1678,3
DA:1716,6
DA:1750,0
DA:1753,0
DA:1791,0
LF:6
LH:3
end_of_record
TN:
SF:/nix/store/0vsyw5bhwmisszyfd1a0sdnwvnf4qa5a-gcc-13.3.0/include/c++/13.3.0/typeinfo
FN:103,104,_ZNKSt9type_info4nameEv
FN:193,210,_ZNKSt9type_infoeqERKS_
FNDA:0,_ZNKSt9type_info4nameEv
FNDA:0,_ZNKSt9type_infoeqERKS_
FNF:2
FNH:0
DA:103,0
DA:104,0
DA:193,0
DA:198,0
DA:199,0
DA:206,0
DA:210,0
LF:7
LH:0
end_of_record
